
Newbie.elf:     file format elf32-avr

Sections:
Idx Name          Size      VMA       LMA       File off  Algn
  0 .data         000000b4  00800100  0000199e  00001a32  2**0
                  CONTENTS, ALLOC, LOAD, DATA
  1 .text         0000199e  00000000  00000000  00000094  2**1
                  CONTENTS, ALLOC, LOAD, READONLY, CODE
  2 .bss          00000017  008001b4  008001b4  00001ae6  2**0
                  ALLOC
  3 .comment      0000008c  00000000  00000000  00001ae6  2**0
                  CONTENTS, READONLY
  4 .note.gnu.avr.deviceinfo 00000040  00000000  00000000  00001b74  2**2
                  CONTENTS, READONLY
  5 .debug_aranges 00000220  00000000  00000000  00001bb8  2**3
                  CONTENTS, READONLY, DEBUGGING
  6 .debug_info   00003136  00000000  00000000  00001dd8  2**0
                  CONTENTS, READONLY, DEBUGGING
  7 .debug_abbrev 00000f89  00000000  00000000  00004f0e  2**0
                  CONTENTS, READONLY, DEBUGGING
  8 .debug_line   00001686  00000000  00000000  00005e97  2**0
                  CONTENTS, READONLY, DEBUGGING
  9 .debug_frame  000005a8  00000000  00000000  00007520  2**2
                  CONTENTS, READONLY, DEBUGGING
 10 .debug_str    00000a58  00000000  00000000  00007ac8  2**0
                  CONTENTS, READONLY, DEBUGGING
 11 .debug_loc    00002536  00000000  00000000  00008520  2**0
                  CONTENTS, READONLY, DEBUGGING
 12 .debug_ranges 00000228  00000000  00000000  0000aa56  2**0
                  CONTENTS, READONLY, DEBUGGING

Disassembly of section .text:

00000000 <__vectors>:
       0:	0c 94 3b 00 	jmp	0x76	; 0x76 <__ctors_end>
       4:	0c 94 58 00 	jmp	0xb0	; 0xb0 <__bad_interrupt>
       8:	0c 94 58 00 	jmp	0xb0	; 0xb0 <__bad_interrupt>
       c:	0c 94 58 00 	jmp	0xb0	; 0xb0 <__bad_interrupt>
      10:	0c 94 58 00 	jmp	0xb0	; 0xb0 <__bad_interrupt>
      14:	0c 94 58 00 	jmp	0xb0	; 0xb0 <__bad_interrupt>
      18:	0c 94 58 00 	jmp	0xb0	; 0xb0 <__bad_interrupt>
      1c:	0c 94 53 09 	jmp	0x12a6	; 0x12a6 <__vector_7>
      20:	0c 94 58 00 	jmp	0xb0	; 0xb0 <__bad_interrupt>
      24:	0c 94 58 00 	jmp	0xb0	; 0xb0 <__bad_interrupt>
      28:	0c 94 58 00 	jmp	0xb0	; 0xb0 <__bad_interrupt>
      2c:	0c 94 58 00 	jmp	0xb0	; 0xb0 <__bad_interrupt>
      30:	0c 94 58 00 	jmp	0xb0	; 0xb0 <__bad_interrupt>
      34:	0c 94 58 00 	jmp	0xb0	; 0xb0 <__bad_interrupt>
      38:	0c 94 2e 09 	jmp	0x125c	; 0x125c <__vector_14>
      3c:	0c 94 58 00 	jmp	0xb0	; 0xb0 <__bad_interrupt>
      40:	0c 94 58 00 	jmp	0xb0	; 0xb0 <__bad_interrupt>
      44:	0c 94 58 00 	jmp	0xb0	; 0xb0 <__bad_interrupt>
      48:	0c 94 58 00 	jmp	0xb0	; 0xb0 <__bad_interrupt>
      4c:	0c 94 58 00 	jmp	0xb0	; 0xb0 <__bad_interrupt>
      50:	0c 94 58 00 	jmp	0xb0	; 0xb0 <__bad_interrupt>
      54:	0c 94 58 00 	jmp	0xb0	; 0xb0 <__bad_interrupt>
      58:	0c 94 58 00 	jmp	0xb0	; 0xb0 <__bad_interrupt>
      5c:	0c 94 58 00 	jmp	0xb0	; 0xb0 <__bad_interrupt>
      60:	0c 94 58 00 	jmp	0xb0	; 0xb0 <__bad_interrupt>
      64:	0c 94 58 00 	jmp	0xb0	; 0xb0 <__bad_interrupt>
      68:	88 06       	cpc	r8, r24
      6a:	81 06       	cpc	r8, r17
      6c:	73 06       	cpc	r7, r19
      6e:	7a 06       	cpc	r7, r26
      70:	96 06       	cpc	r9, r22
      72:	cc 06       	cpc	r12, r28
      74:	0a 07       	cpc	r16, r26

00000076 <__ctors_end>:
      76:	11 24       	eor	r1, r1
      78:	1f be       	out	0x3f, r1	; 63
      7a:	cf ef       	ldi	r28, 0xFF	; 255
      7c:	d8 e0       	ldi	r29, 0x08	; 8
      7e:	de bf       	out	0x3e, r29	; 62
      80:	cd bf       	out	0x3d, r28	; 61

00000082 <__do_copy_data>:
      82:	11 e0       	ldi	r17, 0x01	; 1
      84:	a0 e0       	ldi	r26, 0x00	; 0
      86:	b1 e0       	ldi	r27, 0x01	; 1
      88:	ee e9       	ldi	r30, 0x9E	; 158
      8a:	f9 e1       	ldi	r31, 0x19	; 25
      8c:	02 c0       	rjmp	.+4      	; 0x92 <__do_copy_data+0x10>
      8e:	05 90       	lpm	r0, Z+
      90:	0d 92       	st	X+, r0
      92:	a4 3b       	cpi	r26, 0xB4	; 180
      94:	b1 07       	cpc	r27, r17
      96:	d9 f7       	brne	.-10     	; 0x8e <__do_copy_data+0xc>

00000098 <__do_clear_bss>:
      98:	21 e0       	ldi	r18, 0x01	; 1
      9a:	a4 eb       	ldi	r26, 0xB4	; 180
      9c:	b1 e0       	ldi	r27, 0x01	; 1
      9e:	01 c0       	rjmp	.+2      	; 0xa2 <.do_clear_bss_start>

000000a0 <.do_clear_bss_loop>:
      a0:	1d 92       	st	X+, r1

000000a2 <.do_clear_bss_start>:
      a2:	ab 3c       	cpi	r26, 0xCB	; 203
      a4:	b2 07       	cpc	r27, r18
      a6:	e1 f7       	brne	.-8      	; 0xa0 <.do_clear_bss_loop>
      a8:	0e 94 bd 07 	call	0xf7a	; 0xf7a <main>
      ac:	0c 94 cd 0c 	jmp	0x199a	; 0x199a <_exit>

000000b0 <__bad_interrupt>:
      b0:	0c 94 00 00 	jmp	0	; 0x0 <__vectors>

000000b4 <show_all_eeprom>:
/* Private variables -------------------------------------------------- */

/* Private function prototypes ---------------------------------------- */

void show_all_eeprom()
{
      b4:	4f 92       	push	r4
      b6:	5f 92       	push	r5
      b8:	6f 92       	push	r6
      ba:	7f 92       	push	r7
      bc:	8f 92       	push	r8
      be:	9f 92       	push	r9
      c0:	af 92       	push	r10
      c2:	bf 92       	push	r11
      c4:	cf 92       	push	r12
      c6:	df 92       	push	r13
      c8:	ef 92       	push	r14
      ca:	ff 92       	push	r15
      cc:	0f 93       	push	r16
      ce:	1f 93       	push	r17
      d0:	cf 93       	push	r28
      d2:	df 93       	push	r29
      d4:	cd b7       	in	r28, 0x3d	; 61
      d6:	de b7       	in	r29, 0x3e	; 62
      d8:	61 97       	sbiw	r28, 0x11	; 17
      da:	0f b6       	in	r0, 0x3f	; 63
      dc:	f8 94       	cli
      de:	de bf       	out	0x3e, r29	; 62
      e0:	0f be       	out	0x3f, r0	; 63
      e2:	cd bf       	out	0x3d, r28	; 61
	uint8_t last_addr = eeprom_read_byte((uint8_t*)0x00);
      e4:	80 e0       	ldi	r24, 0x00	; 0
      e6:	90 e0       	ldi	r25, 0x00	; 0
      e8:	0e 94 80 0c 	call	0x1900	; 0x1900 <eeprom_read_byte>
      ec:	88 2e       	mov	r8, r24
	if (last_addr == 0xFF || last_addr < 0x01)
      ee:	8f ef       	ldi	r24, 0xFF	; 255
      f0:	88 0d       	add	r24, r8
      f2:	8e 3f       	cpi	r24, 0xFE	; 254
      f4:	90 f0       	brcs	.+36     	; 0x11a <show_all_eeprom+0x66>
	{
		LCD_I2C_write_string("EEPROM trong", 1, 1);
      f6:	41 e0       	ldi	r20, 0x01	; 1
      f8:	61 e0       	ldi	r22, 0x01	; 1
      fa:	82 e0       	ldi	r24, 0x02	; 2
      fc:	91 e0       	ldi	r25, 0x01	; 1
      fe:	0e 94 7d 03 	call	0x6fa	; 0x6fa <LCD_I2C_write_string>
	#else
		//round up by default
		__ticks_dc = (uint32_t)(ceil(fabs(__tmp)));
	#endif

	__builtin_avr_delay_cycles(__ticks_dc);
     102:	2f ef       	ldi	r18, 0xFF	; 255
     104:	89 e6       	ldi	r24, 0x69	; 105
     106:	98 e1       	ldi	r25, 0x18	; 24
     108:	21 50       	subi	r18, 0x01	; 1
     10a:	80 40       	sbci	r24, 0x00	; 0
     10c:	90 40       	sbci	r25, 0x00	; 0
     10e:	e1 f7       	brne	.-8      	; 0x108 <show_all_eeprom+0x54>
     110:	00 c0       	rjmp	.+0      	; 0x112 <show_all_eeprom+0x5e>
     112:	00 00       	nop
		_delay_ms(500);
		LCD_Clear();
     114:	0e 94 70 03 	call	0x6e0	; 0x6e0 <LCD_Clear>
     118:	82 c0       	rjmp	.+260    	; 0x21e <show_all_eeprom+0x16a>
		return;
	}

	LCD_Clear();
     11a:	0e 94 70 03 	call	0x6e0	; 0x6e0 <LCD_Clear>
	LCD_I2C_write_string("EEPROM data:", 1, 1);
     11e:	41 e0       	ldi	r20, 0x01	; 1
     120:	61 e0       	ldi	r22, 0x01	; 1
     122:	8f e0       	ldi	r24, 0x0F	; 15
     124:	91 e0       	ldi	r25, 0x01	; 1
     126:	0e 94 7d 03 	call	0x6fa	; 0x6fa <LCD_I2C_write_string>
     12a:	2f ef       	ldi	r18, 0xFF	; 255
     12c:	83 ed       	ldi	r24, 0xD3	; 211
     12e:	90 e3       	ldi	r25, 0x30	; 48
     130:	21 50       	subi	r18, 0x01	; 1
     132:	80 40       	sbci	r24, 0x00	; 0
     134:	90 40       	sbci	r25, 0x00	; 0
     136:	e1 f7       	brne	.-8      	; 0x130 <show_all_eeprom+0x7c>
     138:	00 c0       	rjmp	.+0      	; 0x13a <show_all_eeprom+0x86>
     13a:	00 00       	nop
	_delay_ms(1000);
	LCD_Clear();
     13c:	0e 94 70 03 	call	0x6e0	; 0x6e0 <LCD_Clear>

	char line[17];
	uint8_t index = 1;

	for (uint16_t addr = 0x01; addr < last_addr; addr += 5)
     140:	91 2c       	mov	r9, r1
     142:	22 e0       	ldi	r18, 0x02	; 2
     144:	82 16       	cp	r8, r18
     146:	91 04       	cpc	r9, r1
     148:	08 f4       	brcc	.+2      	; 0x14c <show_all_eeprom+0x98>
     14a:	58 c0       	rjmp	.+176    	; 0x1fc <show_all_eeprom+0x148>
     14c:	01 e0       	ldi	r16, 0x01	; 1
     14e:	10 e0       	ldi	r17, 0x00	; 0
     150:	ff 24       	eor	r15, r15
     152:	f3 94       	inc	r15
		uint8_t b1 = eeprom_read_byte((uint8_t*)(addr + 1));
		uint8_t b2 = eeprom_read_byte((uint8_t*)(addr + 2));
		uint8_t b3 = eeprom_read_byte((uint8_t*)(addr + 3));
		uint8_t b4 = eeprom_read_byte((uint8_t*)(addr + 4));

		snprintf(line, sizeof(line), "%02u:%02X %02X %02X %02X %02X", index, b0, b1, b2, b3, b4);
     154:	0f 2e       	mov	r0, r31
     156:	fc e1       	ldi	r31, 0x1C	; 28
     158:	af 2e       	mov	r10, r31
     15a:	f1 e0       	ldi	r31, 0x01	; 1
     15c:	bf 2e       	mov	r11, r31
     15e:	f0 2d       	mov	r31, r0
     160:	0f 2e       	mov	r0, r31
     162:	f1 e1       	ldi	r31, 0x11	; 17
     164:	4f 2e       	mov	r4, r31
     166:	f0 2d       	mov	r31, r0
     168:	ce 01       	movw	r24, r28
     16a:	01 96       	adiw	r24, 0x01	; 1
     16c:	6c 01       	movw	r12, r24
	char line[17];
	uint8_t index = 1;

	for (uint16_t addr = 0x01; addr < last_addr; addr += 5)
	{
		uint8_t b0 = eeprom_read_byte((uint8_t*)(addr + 0));
     16e:	c8 01       	movw	r24, r16
     170:	0e 94 80 0c 	call	0x1900	; 0x1900 <eeprom_read_byte>
     174:	e8 2e       	mov	r14, r24
		uint8_t b1 = eeprom_read_byte((uint8_t*)(addr + 1));
     176:	c8 01       	movw	r24, r16
     178:	01 96       	adiw	r24, 0x01	; 1
     17a:	0e 94 80 0c 	call	0x1900	; 0x1900 <eeprom_read_byte>
     17e:	78 2e       	mov	r7, r24
		uint8_t b2 = eeprom_read_byte((uint8_t*)(addr + 2));
     180:	c8 01       	movw	r24, r16
     182:	02 96       	adiw	r24, 0x02	; 2
     184:	0e 94 80 0c 	call	0x1900	; 0x1900 <eeprom_read_byte>
     188:	68 2e       	mov	r6, r24
		uint8_t b3 = eeprom_read_byte((uint8_t*)(addr + 3));
     18a:	c8 01       	movw	r24, r16
     18c:	03 96       	adiw	r24, 0x03	; 3
     18e:	0e 94 80 0c 	call	0x1900	; 0x1900 <eeprom_read_byte>
     192:	58 2e       	mov	r5, r24
		uint8_t b4 = eeprom_read_byte((uint8_t*)(addr + 4));
     194:	c8 01       	movw	r24, r16
     196:	04 96       	adiw	r24, 0x04	; 4
     198:	0e 94 80 0c 	call	0x1900	; 0x1900 <eeprom_read_byte>

		snprintf(line, sizeof(line), "%02u:%02X %02X %02X %02X %02X", index, b0, b1, b2, b3, b4);
     19c:	1f 92       	push	r1
     19e:	8f 93       	push	r24
     1a0:	1f 92       	push	r1
     1a2:	5f 92       	push	r5
     1a4:	1f 92       	push	r1
     1a6:	6f 92       	push	r6
     1a8:	1f 92       	push	r1
     1aa:	7f 92       	push	r7
     1ac:	1f 92       	push	r1
     1ae:	ef 92       	push	r14
     1b0:	1f 92       	push	r1
     1b2:	ff 92       	push	r15
     1b4:	bf 92       	push	r11
     1b6:	af 92       	push	r10
     1b8:	1f 92       	push	r1
     1ba:	4f 92       	push	r4
     1bc:	df 92       	push	r13
     1be:	cf 92       	push	r12
     1c0:	0e 94 bf 09 	call	0x137e	; 0x137e <snprintf>
		LCD_I2C_write_string(line, 1, 1);
     1c4:	41 e0       	ldi	r20, 0x01	; 1
     1c6:	61 e0       	ldi	r22, 0x01	; 1
     1c8:	c6 01       	movw	r24, r12
     1ca:	0e 94 7d 03 	call	0x6fa	; 0x6fa <LCD_I2C_write_string>
     1ce:	9f ef       	ldi	r25, 0xFF	; 255
     1d0:	29 e6       	ldi	r18, 0x69	; 105
     1d2:	88 e1       	ldi	r24, 0x18	; 24
     1d4:	91 50       	subi	r25, 0x01	; 1
     1d6:	20 40       	sbci	r18, 0x00	; 0
     1d8:	80 40       	sbci	r24, 0x00	; 0
     1da:	e1 f7       	brne	.-8      	; 0x1d4 <show_all_eeprom+0x120>
     1dc:	00 c0       	rjmp	.+0      	; 0x1de <show_all_eeprom+0x12a>
     1de:	00 00       	nop

		_delay_ms(500);
		LCD_Clear();
     1e0:	0e 94 70 03 	call	0x6e0	; 0x6e0 <LCD_Clear>

		index++;
     1e4:	f3 94       	inc	r15
	LCD_Clear();

	char line[17];
	uint8_t index = 1;

	for (uint16_t addr = 0x01; addr < last_addr; addr += 5)
     1e6:	0b 5f       	subi	r16, 0xFB	; 251
     1e8:	1f 4f       	sbci	r17, 0xFF	; 255
     1ea:	0f b6       	in	r0, 0x3f	; 63
     1ec:	f8 94       	cli
     1ee:	de bf       	out	0x3e, r29	; 62
     1f0:	0f be       	out	0x3f, r0	; 63
     1f2:	cd bf       	out	0x3d, r28	; 61
     1f4:	08 15       	cp	r16, r8
     1f6:	19 05       	cpc	r17, r9
     1f8:	08 f4       	brcc	.+2      	; 0x1fc <show_all_eeprom+0x148>
     1fa:	b9 cf       	rjmp	.-142    	; 0x16e <show_all_eeprom+0xba>
		LCD_Clear();

		index++;
	}

	LCD_I2C_write_string("Het du lieu", 1, 1);
     1fc:	41 e0       	ldi	r20, 0x01	; 1
     1fe:	61 e0       	ldi	r22, 0x01	; 1
     200:	8a e3       	ldi	r24, 0x3A	; 58
     202:	91 e0       	ldi	r25, 0x01	; 1
     204:	0e 94 7d 03 	call	0x6fa	; 0x6fa <LCD_I2C_write_string>
     208:	9f ef       	ldi	r25, 0xFF	; 255
     20a:	27 e8       	ldi	r18, 0x87	; 135
     20c:	83 e1       	ldi	r24, 0x13	; 19
     20e:	91 50       	subi	r25, 0x01	; 1
     210:	20 40       	sbci	r18, 0x00	; 0
     212:	80 40       	sbci	r24, 0x00	; 0
     214:	e1 f7       	brne	.-8      	; 0x20e <show_all_eeprom+0x15a>
     216:	00 c0       	rjmp	.+0      	; 0x218 <show_all_eeprom+0x164>
     218:	00 00       	nop
	_delay_ms(400);
	LCD_Clear();
     21a:	0e 94 70 03 	call	0x6e0	; 0x6e0 <LCD_Clear>
}
     21e:	61 96       	adiw	r28, 0x11	; 17
     220:	0f b6       	in	r0, 0x3f	; 63
     222:	f8 94       	cli
     224:	de bf       	out	0x3e, r29	; 62
     226:	0f be       	out	0x3f, r0	; 63
     228:	cd bf       	out	0x3d, r28	; 61
     22a:	df 91       	pop	r29
     22c:	cf 91       	pop	r28
     22e:	1f 91       	pop	r17
     230:	0f 91       	pop	r16
     232:	ff 90       	pop	r15
     234:	ef 90       	pop	r14
     236:	df 90       	pop	r13
     238:	cf 90       	pop	r12
     23a:	bf 90       	pop	r11
     23c:	af 90       	pop	r10
     23e:	9f 90       	pop	r9
     240:	8f 90       	pop	r8
     242:	7f 90       	pop	r7
     244:	6f 90       	pop	r6
     246:	5f 90       	pop	r5
     248:	4f 90       	pop	r4
     24a:	08 95       	ret

0000024c <read_eeprom>:

uint32_t read_eeprom(uint8_t *buffer, uint8_t *state)
{
     24c:	3f 92       	push	r3
     24e:	4f 92       	push	r4
     250:	5f 92       	push	r5
     252:	6f 92       	push	r6
     254:	7f 92       	push	r7
     256:	8f 92       	push	r8
     258:	9f 92       	push	r9
     25a:	af 92       	push	r10
     25c:	bf 92       	push	r11
     25e:	cf 92       	push	r12
     260:	df 92       	push	r13
     262:	ef 92       	push	r14
     264:	ff 92       	push	r15
     266:	0f 93       	push	r16
     268:	1f 93       	push	r17
     26a:	cf 93       	push	r28
     26c:	df 93       	push	r29
	for (uint16_t i = 0x01; i < eeprom_address; i += 5)
     26e:	c0 90 00 01 	lds	r12, 0x0100	; 0x800100 <__data_start>
     272:	d0 90 01 01 	lds	r13, 0x0101	; 0x800101 <__data_start+0x1>
     276:	22 e0       	ldi	r18, 0x02	; 2
     278:	c2 16       	cp	r12, r18
     27a:	d1 04       	cpc	r13, r1
     27c:	68 f5       	brcc	.+90     	; 0x2d8 <read_eeprom+0x8c>
			uint8_t new_state = !(*state);
			eeprom_write_byte((uint8_t*)(i + 4), new_state);
			return 0;
		}
	}
	return 1;
     27e:	61 e0       	ldi	r22, 0x01	; 1
     280:	70 e0       	ldi	r23, 0x00	; 0
     282:	80 e0       	ldi	r24, 0x00	; 0
     284:	90 e0       	ldi	r25, 0x00	; 0
     286:	3b c0       	rjmp	.+118    	; 0x2fe <read_eeprom+0xb2>
{
	for (uint16_t i = 0x01; i < eeprom_address; i += 5)
	{
		uint8_t cnt = 0;
		for (uint8_t j = 0; j < 4; j++) {
			uint8_t tmp = eeprom_read_byte((uint8_t*)(i + j));
     288:	ce 01       	movw	r24, r28
     28a:	84 0d       	add	r24, r4
     28c:	95 1d       	adc	r25, r5
     28e:	0e 94 80 0c 	call	0x1900	; 0x1900 <eeprom_read_byte>
			if (buffer[j] == tmp) cnt++;
     292:	f2 01       	movw	r30, r4
     294:	91 91       	ld	r25, Z+
     296:	2f 01       	movw	r4, r30
     298:	89 13       	cpse	r24, r25
     29a:	01 c0       	rjmp	.+2      	; 0x29e <read_eeprom+0x52>
     29c:	33 94       	inc	r3
uint32_t read_eeprom(uint8_t *buffer, uint8_t *state)
{
	for (uint16_t i = 0x01; i < eeprom_address; i += 5)
	{
		uint8_t cnt = 0;
		for (uint8_t j = 0; j < 4; j++) {
     29e:	4e 14       	cp	r4, r14
     2a0:	5f 04       	cpc	r5, r15
     2a2:	91 f7       	brne	.-28     	; 0x288 <read_eeprom+0x3c>
			uint8_t tmp = eeprom_read_byte((uint8_t*)(i + j));
			if (buffer[j] == tmp) cnt++;
		}
		if (cnt == 4)
     2a4:	f4 e0       	ldi	r31, 0x04	; 4
     2a6:	3f 12       	cpse	r3, r31
     2a8:	11 c0       	rjmp	.+34     	; 0x2cc <read_eeprom+0x80>
		{
			*state = eeprom_read_byte((uint8_t*)(i + 4));
     2aa:	0c 5f       	subi	r16, 0xFC	; 252
     2ac:	1f 4f       	sbci	r17, 0xFF	; 255
     2ae:	c8 01       	movw	r24, r16
     2b0:	0e 94 80 0c 	call	0x1900	; 0x1900 <eeprom_read_byte>
     2b4:	f3 01       	movw	r30, r6
     2b6:	80 83       	st	Z, r24
			uint8_t new_state = !(*state);
			eeprom_write_byte((uint8_t*)(i + 4), new_state);
     2b8:	61 e0       	ldi	r22, 0x01	; 1
     2ba:	81 11       	cpse	r24, r1
     2bc:	60 e0       	ldi	r22, 0x00	; 0
     2be:	c8 01       	movw	r24, r16
     2c0:	0e 94 88 0c 	call	0x1910	; 0x1910 <eeprom_write_byte>
			return 0;
     2c4:	60 e0       	ldi	r22, 0x00	; 0
     2c6:	70 e0       	ldi	r23, 0x00	; 0
     2c8:	cb 01       	movw	r24, r22
     2ca:	19 c0       	rjmp	.+50     	; 0x2fe <read_eeprom+0xb2>
	LCD_Clear();
}

uint32_t read_eeprom(uint8_t *buffer, uint8_t *state)
{
	for (uint16_t i = 0x01; i < eeprom_address; i += 5)
     2cc:	0b 5f       	subi	r16, 0xFB	; 251
     2ce:	1f 4f       	sbci	r17, 0xFF	; 255
     2d0:	0c 15       	cp	r16, r12
     2d2:	1d 05       	cpc	r17, r13
     2d4:	50 f0       	brcs	.+20     	; 0x2ea <read_eeprom+0x9e>
     2d6:	0f c0       	rjmp	.+30     	; 0x2f6 <read_eeprom+0xaa>
     2d8:	3b 01       	movw	r6, r22
     2da:	4c 01       	movw	r8, r24
     2dc:	01 e0       	ldi	r16, 0x01	; 1
     2de:	10 e0       	ldi	r17, 0x00	; 0
     2e0:	5c 01       	movw	r10, r24
     2e2:	7c 01       	movw	r14, r24
     2e4:	f4 e0       	ldi	r31, 0x04	; 4
     2e6:	ef 0e       	add	r14, r31
     2e8:	f1 1c       	adc	r15, r1
	_delay_ms(400);
	LCD_Clear();
}

uint32_t read_eeprom(uint8_t *buffer, uint8_t *state)
{
     2ea:	24 01       	movw	r4, r8
     2ec:	31 2c       	mov	r3, r1
	for (uint16_t i = 0x01; i < eeprom_address; i += 5)
	{
		uint8_t cnt = 0;
		for (uint8_t j = 0; j < 4; j++) {
			uint8_t tmp = eeprom_read_byte((uint8_t*)(i + j));
     2ee:	e8 01       	movw	r28, r16
     2f0:	ca 19       	sub	r28, r10
     2f2:	db 09       	sbc	r29, r11
     2f4:	c9 cf       	rjmp	.-110    	; 0x288 <read_eeprom+0x3c>
			uint8_t new_state = !(*state);
			eeprom_write_byte((uint8_t*)(i + 4), new_state);
			return 0;
		}
	}
	return 1;
     2f6:	61 e0       	ldi	r22, 0x01	; 1
     2f8:	70 e0       	ldi	r23, 0x00	; 0
     2fa:	80 e0       	ldi	r24, 0x00	; 0
     2fc:	90 e0       	ldi	r25, 0x00	; 0
}
     2fe:	df 91       	pop	r29
     300:	cf 91       	pop	r28
     302:	1f 91       	pop	r17
     304:	0f 91       	pop	r16
     306:	ff 90       	pop	r15
     308:	ef 90       	pop	r14
     30a:	df 90       	pop	r13
     30c:	cf 90       	pop	r12
     30e:	bf 90       	pop	r11
     310:	af 90       	pop	r10
     312:	9f 90       	pop	r9
     314:	8f 90       	pop	r8
     316:	7f 90       	pop	r7
     318:	6f 90       	pop	r6
     31a:	5f 90       	pop	r5
     31c:	4f 90       	pop	r4
     31e:	3f 90       	pop	r3
     320:	08 95       	ret

00000322 <write_eeprom>:

uint32_t write_eeprom(uint16_t addr, uint8_t *data)
{
     322:	af 92       	push	r10
     324:	bf 92       	push	r11
     326:	cf 92       	push	r12
     328:	df 92       	push	r13
     32a:	ef 92       	push	r14
     32c:	ff 92       	push	r15
     32e:	0f 93       	push	r16
     330:	1f 93       	push	r17
     332:	cf 93       	push	r28
     334:	df 93       	push	r29
     336:	1f 92       	push	r1
     338:	cd b7       	in	r28, 0x3d	; 61
     33a:	de b7       	in	r29, 0x3e	; 62
     33c:	5c 01       	movw	r10, r24
     33e:	8b 01       	movw	r16, r22
	uint8_t dummy_state = 0;
     340:	19 82       	std	Y+1, r1	; 0x01
	ASSERT(read_eeprom(data,&dummy_state) == 0, DATA_EXIST);
     342:	be 01       	movw	r22, r28
     344:	6f 5f       	subi	r22, 0xFF	; 255
     346:	7f 4f       	sbci	r23, 0xFF	; 255
     348:	c8 01       	movw	r24, r16
     34a:	0e 94 26 01 	call	0x24c	; 0x24c <read_eeprom>
     34e:	67 2b       	or	r22, r23
     350:	68 2b       	or	r22, r24
     352:	69 2b       	or	r22, r25
     354:	69 f1       	breq	.+90     	; 0x3b0 <write_eeprom+0x8e>
	read_eeprom(data,&dummy_state);
     356:	be 01       	movw	r22, r28
     358:	6f 5f       	subi	r22, 0xFF	; 255
     35a:	7f 4f       	sbci	r23, 0xFF	; 255
     35c:	c8 01       	movw	r24, r16
     35e:	0e 94 26 01 	call	0x24c	; 0x24c <read_eeprom>
     362:	68 01       	movw	r12, r16
     364:	0c 5f       	subi	r16, 0xFC	; 252
     366:	1f 4f       	sbci	r17, 0xFF	; 255
     368:	75 01       	movw	r14, r10
	for (uint8_t i = 0; i < 4; i++) {
		eeprom_write_byte((uint8_t*)(addr + i), data[i]);
     36a:	f6 01       	movw	r30, r12
     36c:	61 91       	ld	r22, Z+
     36e:	6f 01       	movw	r12, r30
     370:	c7 01       	movw	r24, r14
     372:	0e 94 88 0c 	call	0x1910	; 0x1910 <eeprom_write_byte>
     376:	ff ef       	ldi	r31, 0xFF	; 255
     378:	ef 1a       	sub	r14, r31
     37a:	ff 0a       	sbc	r15, r31
uint32_t write_eeprom(uint16_t addr, uint8_t *data)
{
	uint8_t dummy_state = 0;
	ASSERT(read_eeprom(data,&dummy_state) == 0, DATA_EXIST);
	read_eeprom(data,&dummy_state);
	for (uint8_t i = 0; i < 4; i++) {
     37c:	c0 16       	cp	r12, r16
     37e:	d1 06       	cpc	r13, r17
     380:	a1 f7       	brne	.-24     	; 0x36a <write_eeprom+0x48>
		eeprom_write_byte((uint8_t*)(addr + i), data[i]);
	}
	eeprom_write_byte((uint8_t*)(addr + 4), 0);
     382:	60 e0       	ldi	r22, 0x00	; 0
     384:	c5 01       	movw	r24, r10
     386:	04 96       	adiw	r24, 0x04	; 4
     388:	0e 94 88 0c 	call	0x1910	; 0x1910 <eeprom_write_byte>
	eeprom_address += 5;
     38c:	60 91 00 01 	lds	r22, 0x0100	; 0x800100 <__data_start>
     390:	70 91 01 01 	lds	r23, 0x0101	; 0x800101 <__data_start+0x1>
     394:	6b 5f       	subi	r22, 0xFB	; 251
     396:	7f 4f       	sbci	r23, 0xFF	; 255
     398:	70 93 01 01 	sts	0x0101, r23	; 0x800101 <__data_start+0x1>
     39c:	60 93 00 01 	sts	0x0100, r22	; 0x800100 <__data_start>
	eeprom_write_byte((uint8_t*)0x00, (uint8_t)eeprom_address);
     3a0:	80 e0       	ldi	r24, 0x00	; 0
     3a2:	90 e0       	ldi	r25, 0x00	; 0
     3a4:	0e 94 88 0c 	call	0x1910	; 0x1910 <eeprom_write_byte>
	return SUCCESS;
     3a8:	60 e0       	ldi	r22, 0x00	; 0
     3aa:	70 e0       	ldi	r23, 0x00	; 0
     3ac:	cb 01       	movw	r24, r22
     3ae:	04 c0       	rjmp	.+8      	; 0x3b8 <write_eeprom+0x96>
}

uint32_t write_eeprom(uint16_t addr, uint8_t *data)
{
	uint8_t dummy_state = 0;
	ASSERT(read_eeprom(data,&dummy_state) == 0, DATA_EXIST);
     3b0:	65 e0       	ldi	r22, 0x05	; 5
     3b2:	70 e0       	ldi	r23, 0x00	; 0
     3b4:	80 e0       	ldi	r24, 0x00	; 0
     3b6:	90 e0       	ldi	r25, 0x00	; 0
	}
	eeprom_write_byte((uint8_t*)(addr + 4), 0);
	eeprom_address += 5;
	eeprom_write_byte((uint8_t*)0x00, (uint8_t)eeprom_address);
	return SUCCESS;
}
     3b8:	0f 90       	pop	r0
     3ba:	df 91       	pop	r29
     3bc:	cf 91       	pop	r28
     3be:	1f 91       	pop	r17
     3c0:	0f 91       	pop	r16
     3c2:	ff 90       	pop	r15
     3c4:	ef 90       	pop	r14
     3c6:	df 90       	pop	r13
     3c8:	cf 90       	pop	r12
     3ca:	bf 90       	pop	r11
     3cc:	af 90       	pop	r10
     3ce:	08 95       	ret

000003d0 <clear_all_eeprom>:


void clear_all_eeprom()
{
     3d0:	cf 93       	push	r28
     3d2:	df 93       	push	r29
	LCD_Clear();
     3d4:	0e 94 70 03 	call	0x6e0	; 0x6e0 <LCD_Clear>
	LCD_I2C_write_string("Dang xoa EEPROM...", 1, 1);
     3d8:	41 e0       	ldi	r20, 0x01	; 1
     3da:	61 e0       	ldi	r22, 0x01	; 1
     3dc:	86 e4       	ldi	r24, 0x46	; 70
     3de:	91 e0       	ldi	r25, 0x01	; 1
     3e0:	0e 94 7d 03 	call	0x6fa	; 0x6fa <LCD_I2C_write_string>

	for (uint16_t addr = 0; addr < EEPROM_SIZE; addr++)
     3e4:	c0 e0       	ldi	r28, 0x00	; 0
     3e6:	d0 e0       	ldi	r29, 0x00	; 0
	{
		eeprom_write_byte((uint8_t*)addr, 0xFF);
     3e8:	6f ef       	ldi	r22, 0xFF	; 255
     3ea:	ce 01       	movw	r24, r28
     3ec:	0e 94 88 0c 	call	0x1910	; 0x1910 <eeprom_write_byte>
		while (!eeprom_is_ready());
     3f0:	f9 99       	sbic	0x1f, 1	; 31
     3f2:	fe cf       	rjmp	.-4      	; 0x3f0 <clear_all_eeprom+0x20>
void clear_all_eeprom()
{
	LCD_Clear();
	LCD_I2C_write_string("Dang xoa EEPROM...", 1, 1);

	for (uint16_t addr = 0; addr < EEPROM_SIZE; addr++)
     3f4:	21 96       	adiw	r28, 0x01	; 1
     3f6:	c1 15       	cp	r28, r1
     3f8:	24 e0       	ldi	r18, 0x04	; 4
     3fa:	d2 07       	cpc	r29, r18
     3fc:	a9 f7       	brne	.-22     	; 0x3e8 <clear_all_eeprom+0x18>
	{
		eeprom_write_byte((uint8_t*)addr, 0xFF);
		while (!eeprom_is_ready());
	}

	eeprom_write_byte((uint8_t*)0x00, 0x01);
     3fe:	61 e0       	ldi	r22, 0x01	; 1
     400:	80 e0       	ldi	r24, 0x00	; 0
     402:	90 e0       	ldi	r25, 0x00	; 0
     404:	0e 94 88 0c 	call	0x1910	; 0x1910 <eeprom_write_byte>
	eeprom_address = 0x01;
     408:	81 e0       	ldi	r24, 0x01	; 1
     40a:	90 e0       	ldi	r25, 0x00	; 0
     40c:	90 93 01 01 	sts	0x0101, r25	; 0x800101 <__data_start+0x1>
     410:	80 93 00 01 	sts	0x0100, r24	; 0x800100 <__data_start>

	LCD_Clear();
     414:	0e 94 70 03 	call	0x6e0	; 0x6e0 <LCD_Clear>
	LCD_I2C_write_string("Da xoa EEPROM", 1, 1);
     418:	41 e0       	ldi	r20, 0x01	; 1
     41a:	61 e0       	ldi	r22, 0x01	; 1
     41c:	89 e5       	ldi	r24, 0x59	; 89
     41e:	91 e0       	ldi	r25, 0x01	; 1
     420:	0e 94 7d 03 	call	0x6fa	; 0x6fa <LCD_I2C_write_string>
     424:	8f ef       	ldi	r24, 0xFF	; 255
     426:	99 e6       	ldi	r25, 0x69	; 105
     428:	28 e1       	ldi	r18, 0x18	; 24
     42a:	81 50       	subi	r24, 0x01	; 1
     42c:	90 40       	sbci	r25, 0x00	; 0
     42e:	20 40       	sbci	r18, 0x00	; 0
     430:	e1 f7       	brne	.-8      	; 0x42a <__LOCK_REGION_LENGTH__+0x2a>
     432:	00 c0       	rjmp	.+0      	; 0x434 <__LOCK_REGION_LENGTH__+0x34>
     434:	00 00       	nop
	_delay_ms(500);
	show_all_eeprom();
     436:	0e 94 5a 00 	call	0xb4	; 0xb4 <show_all_eeprom>
	LCD_Clear();
     43a:	0e 94 70 03 	call	0x6e0	; 0x6e0 <LCD_Clear>
}
     43e:	df 91       	pop	r29
     440:	cf 91       	pop	r28
     442:	08 95       	ret

00000444 <Master_init>:
     444:	10 92 b9 00 	sts	0x00B9, r1	; 0x8000b9 <__DATA_REGION_ORIGIN__+0x59>
     448:	88 e4       	ldi	r24, 0x48	; 72
     44a:	80 93 b8 00 	sts	0x00B8, r24	; 0x8000b8 <__DATA_REGION_ORIGIN__+0x58>
     44e:	84 e0       	ldi	r24, 0x04	; 4
     450:	80 93 bc 00 	sts	0x00BC, r24	; 0x8000bc <__DATA_REGION_ORIGIN__+0x5c>
     454:	60 e0       	ldi	r22, 0x00	; 0
     456:	70 e0       	ldi	r23, 0x00	; 0
     458:	cb 01       	movw	r24, r22
     45a:	08 95       	ret

0000045c <Transfer_polling>:
     45c:	38 2f       	mov	r19, r24
     45e:	40 ea       	ldi	r20, 0xA0	; 160
     460:	56 e8       	ldi	r21, 0x86	; 134
     462:	61 e0       	ldi	r22, 0x01	; 1
     464:	70 e0       	ldi	r23, 0x00	; 0
     466:	ec eb       	ldi	r30, 0xBC	; 188
     468:	f0 e0       	ldi	r31, 0x00	; 0
     46a:	90 81       	ld	r25, Z
     46c:	99 23       	and	r25, r25
     46e:	b4 f4       	brge	.+44     	; 0x49c <Transfer_polling+0x40>
     470:	20 91 b9 00 	lds	r18, 0x00B9	; 0x8000b9 <__DATA_REGION_ORIGIN__+0x59>
     474:	28 7f       	andi	r18, 0xF8	; 248
     476:	81 e0       	ldi	r24, 0x01	; 1
     478:	90 e0       	ldi	r25, 0x00	; 0
     47a:	a0 e0       	ldi	r26, 0x00	; 0
     47c:	b0 e0       	ldi	r27, 0x00	; 0
     47e:	23 13       	cpse	r18, r19
     480:	03 c0       	rjmp	.+6      	; 0x488 <Transfer_polling+0x2c>
     482:	80 e0       	ldi	r24, 0x00	; 0
     484:	90 e0       	ldi	r25, 0x00	; 0
     486:	dc 01       	movw	r26, r24
     488:	9c 01       	movw	r18, r24
     48a:	ad 01       	movw	r20, r26
     48c:	66 27       	eor	r22, r22
     48e:	77 27       	eor	r23, r23
     490:	cb 01       	movw	r24, r22
     492:	62 1b       	sub	r22, r18
     494:	73 0b       	sbc	r23, r19
     496:	84 0b       	sbc	r24, r20
     498:	95 0b       	sbc	r25, r21
     49a:	08 95       	ret
     49c:	41 50       	subi	r20, 0x01	; 1
     49e:	51 09       	sbc	r21, r1
     4a0:	61 09       	sbc	r22, r1
     4a2:	71 09       	sbc	r23, r1
     4a4:	11 f7       	brne	.-60     	; 0x46a <Transfer_polling+0xe>
     4a6:	6f ef       	ldi	r22, 0xFF	; 255
     4a8:	7f ef       	ldi	r23, 0xFF	; 255
     4aa:	cb 01       	movw	r24, r22
     4ac:	08 95       	ret

000004ae <Master_START_init>:
     4ae:	0f 93       	push	r16
     4b0:	1f 93       	push	r17
     4b2:	84 ea       	ldi	r24, 0xA4	; 164
     4b4:	80 93 bc 00 	sts	0x00BC, r24	; 0x8000bc <__DATA_REGION_ORIGIN__+0x5c>
     4b8:	88 e0       	ldi	r24, 0x08	; 8
     4ba:	0e 94 2e 02 	call	0x45c	; 0x45c <Transfer_polling>
     4be:	01 e0       	ldi	r16, 0x01	; 1
     4c0:	10 e0       	ldi	r17, 0x00	; 0
     4c2:	20 e0       	ldi	r18, 0x00	; 0
     4c4:	30 e0       	ldi	r19, 0x00	; 0
     4c6:	6f 3f       	cpi	r22, 0xFF	; 255
     4c8:	7f 4f       	sbci	r23, 0xFF	; 255
     4ca:	8f 4f       	sbci	r24, 0xFF	; 255
     4cc:	9f 4f       	sbci	r25, 0xFF	; 255
     4ce:	19 f0       	breq	.+6      	; 0x4d6 <Master_START_init+0x28>
     4d0:	00 e0       	ldi	r16, 0x00	; 0
     4d2:	10 e0       	ldi	r17, 0x00	; 0
     4d4:	98 01       	movw	r18, r16
     4d6:	66 27       	eor	r22, r22
     4d8:	77 27       	eor	r23, r23
     4da:	cb 01       	movw	r24, r22
     4dc:	60 1b       	sub	r22, r16
     4de:	71 0b       	sbc	r23, r17
     4e0:	82 0b       	sbc	r24, r18
     4e2:	93 0b       	sbc	r25, r19
     4e4:	1f 91       	pop	r17
     4e6:	0f 91       	pop	r16
     4e8:	08 95       	ret

000004ea <Master_transmitter_init>:
     4ea:	0f 93       	push	r16
     4ec:	1f 93       	push	r17
     4ee:	cf 93       	push	r28
     4f0:	c6 2f       	mov	r28, r22
     4f2:	80 93 bb 00 	sts	0x00BB, r24	; 0x8000bb <__DATA_REGION_ORIGIN__+0x5b>
     4f6:	84 e8       	ldi	r24, 0x84	; 132
     4f8:	80 93 bc 00 	sts	0x00BC, r24	; 0x8000bc <__DATA_REGION_ORIGIN__+0x5c>
     4fc:	88 e1       	ldi	r24, 0x18	; 24
     4fe:	0e 94 2e 02 	call	0x45c	; 0x45c <Transfer_polling>
     502:	6f 3f       	cpi	r22, 0xFF	; 255
     504:	2f ef       	ldi	r18, 0xFF	; 255
     506:	72 07       	cpc	r23, r18
     508:	82 07       	cpc	r24, r18
     50a:	92 07       	cpc	r25, r18
     50c:	d9 f0       	breq	.+54     	; 0x544 <Master_transmitter_init+0x5a>
     50e:	c0 93 bb 00 	sts	0x00BB, r28	; 0x8000bb <__DATA_REGION_ORIGIN__+0x5b>
     512:	84 e8       	ldi	r24, 0x84	; 132
     514:	80 93 bc 00 	sts	0x00BC, r24	; 0x8000bc <__DATA_REGION_ORIGIN__+0x5c>
     518:	88 e2       	ldi	r24, 0x28	; 40
     51a:	0e 94 2e 02 	call	0x45c	; 0x45c <Transfer_polling>
     51e:	01 e0       	ldi	r16, 0x01	; 1
     520:	10 e0       	ldi	r17, 0x00	; 0
     522:	20 e0       	ldi	r18, 0x00	; 0
     524:	30 e0       	ldi	r19, 0x00	; 0
     526:	6f 3f       	cpi	r22, 0xFF	; 255
     528:	7f 4f       	sbci	r23, 0xFF	; 255
     52a:	8f 4f       	sbci	r24, 0xFF	; 255
     52c:	9f 4f       	sbci	r25, 0xFF	; 255
     52e:	19 f0       	breq	.+6      	; 0x536 <Master_transmitter_init+0x4c>
     530:	00 e0       	ldi	r16, 0x00	; 0
     532:	10 e0       	ldi	r17, 0x00	; 0
     534:	98 01       	movw	r18, r16
     536:	66 27       	eor	r22, r22
     538:	77 27       	eor	r23, r23
     53a:	cb 01       	movw	r24, r22
     53c:	60 1b       	sub	r22, r16
     53e:	71 0b       	sbc	r23, r17
     540:	82 0b       	sbc	r24, r18
     542:	93 0b       	sbc	r25, r19
     544:	cf 91       	pop	r28
     546:	1f 91       	pop	r17
     548:	0f 91       	pop	r16
     54a:	08 95       	ret

0000054c <Master_continue_transmit_data>:
     54c:	0f 93       	push	r16
     54e:	1f 93       	push	r17
     550:	80 93 bb 00 	sts	0x00BB, r24	; 0x8000bb <__DATA_REGION_ORIGIN__+0x5b>
     554:	84 e8       	ldi	r24, 0x84	; 132
     556:	80 93 bc 00 	sts	0x00BC, r24	; 0x8000bc <__DATA_REGION_ORIGIN__+0x5c>
     55a:	88 e2       	ldi	r24, 0x28	; 40
     55c:	0e 94 2e 02 	call	0x45c	; 0x45c <Transfer_polling>
     560:	01 e0       	ldi	r16, 0x01	; 1
     562:	10 e0       	ldi	r17, 0x00	; 0
     564:	20 e0       	ldi	r18, 0x00	; 0
     566:	30 e0       	ldi	r19, 0x00	; 0
     568:	6f 3f       	cpi	r22, 0xFF	; 255
     56a:	7f 4f       	sbci	r23, 0xFF	; 255
     56c:	8f 4f       	sbci	r24, 0xFF	; 255
     56e:	9f 4f       	sbci	r25, 0xFF	; 255
     570:	19 f0       	breq	.+6      	; 0x578 <Master_continue_transmit_data+0x2c>
     572:	00 e0       	ldi	r16, 0x00	; 0
     574:	10 e0       	ldi	r17, 0x00	; 0
     576:	98 01       	movw	r18, r16
     578:	66 27       	eor	r22, r22
     57a:	77 27       	eor	r23, r23
     57c:	cb 01       	movw	r24, r22
     57e:	60 1b       	sub	r22, r16
     580:	71 0b       	sbc	r23, r17
     582:	82 0b       	sbc	r24, r18
     584:	93 0b       	sbc	r25, r19
     586:	1f 91       	pop	r17
     588:	0f 91       	pop	r16
     58a:	08 95       	ret

0000058c <Master_terminate>:
     58c:	84 e9       	ldi	r24, 0x94	; 148
     58e:	80 93 bc 00 	sts	0x00BC, r24	; 0x8000bc <__DATA_REGION_ORIGIN__+0x5c>
     592:	85 e3       	ldi	r24, 0x35	; 53
     594:	8a 95       	dec	r24
     596:	f1 f7       	brne	.-4      	; 0x594 <Master_terminate+0x8>
     598:	00 00       	nop
     59a:	60 e0       	ldi	r22, 0x00	; 0
     59c:	70 e0       	ldi	r23, 0x00	; 0
     59e:	cb 01       	movw	r24, r22
     5a0:	08 95       	ret

000005a2 <LCD_I2C_transmit_data>:
     5a2:	cf 93       	push	r28
     5a4:	df 93       	push	r29
     5a6:	c8 2f       	mov	r28, r24
     5a8:	d8 2f       	mov	r29, r24
     5aa:	d0 7f       	andi	r29, 0xF0	; 240
     5ac:	0e 94 57 02 	call	0x4ae	; 0x4ae <Master_START_init>
     5b0:	c2 95       	swap	r28
     5b2:	c0 7f       	andi	r28, 0xF0	; 240
     5b4:	6d 2f       	mov	r22, r29
     5b6:	6d 60       	ori	r22, 0x0D	; 13
     5b8:	8e e4       	ldi	r24, 0x4E	; 78
     5ba:	0e 94 75 02 	call	0x4ea	; 0x4ea <Master_transmitter_init>
     5be:	8d 2f       	mov	r24, r29
     5c0:	89 60       	ori	r24, 0x09	; 9
     5c2:	0e 94 a6 02 	call	0x54c	; 0x54c <Master_continue_transmit_data>
     5c6:	8c 2f       	mov	r24, r28
     5c8:	8d 60       	ori	r24, 0x0D	; 13
     5ca:	0e 94 a6 02 	call	0x54c	; 0x54c <Master_continue_transmit_data>
     5ce:	8c 2f       	mov	r24, r28
     5d0:	89 60       	ori	r24, 0x09	; 9
     5d2:	0e 94 a6 02 	call	0x54c	; 0x54c <Master_continue_transmit_data>
     5d6:	0e 94 c6 02 	call	0x58c	; 0x58c <Master_terminate>
     5da:	60 e0       	ldi	r22, 0x00	; 0
     5dc:	70 e0       	ldi	r23, 0x00	; 0
     5de:	cb 01       	movw	r24, r22
     5e0:	df 91       	pop	r29
     5e2:	cf 91       	pop	r28
     5e4:	08 95       	ret

000005e6 <LCD_I2C_transmit_cmd>:
     5e6:	0f 93       	push	r16
     5e8:	1f 93       	push	r17
     5ea:	cf 93       	push	r28
     5ec:	c8 2f       	mov	r28, r24
     5ee:	80 e1       	ldi	r24, 0x10	; 16
     5f0:	c8 9f       	mul	r28, r24
     5f2:	80 01       	movw	r16, r0
     5f4:	11 24       	eor	r1, r1
     5f6:	0e 94 57 02 	call	0x4ae	; 0x4ae <Master_START_init>
     5fa:	c0 7f       	andi	r28, 0xF0	; 240
     5fc:	0c 7f       	andi	r16, 0xFC	; 252
     5fe:	6c 2f       	mov	r22, r28
     600:	6c 60       	ori	r22, 0x0C	; 12
     602:	8e e4       	ldi	r24, 0x4E	; 78
     604:	0e 94 75 02 	call	0x4ea	; 0x4ea <Master_transmitter_init>
     608:	8c 2f       	mov	r24, r28
     60a:	88 60       	ori	r24, 0x08	; 8
     60c:	0e 94 a6 02 	call	0x54c	; 0x54c <Master_continue_transmit_data>
     610:	80 2f       	mov	r24, r16
     612:	8c 60       	ori	r24, 0x0C	; 12
     614:	0e 94 a6 02 	call	0x54c	; 0x54c <Master_continue_transmit_data>
     618:	80 2f       	mov	r24, r16
     61a:	88 60       	ori	r24, 0x08	; 8
     61c:	0e 94 a6 02 	call	0x54c	; 0x54c <Master_continue_transmit_data>
     620:	0e 94 c6 02 	call	0x58c	; 0x58c <Master_terminate>
     624:	60 e0       	ldi	r22, 0x00	; 0
     626:	70 e0       	ldi	r23, 0x00	; 0
     628:	cb 01       	movw	r24, r22
     62a:	cf 91       	pop	r28
     62c:	1f 91       	pop	r17
     62e:	0f 91       	pop	r16
     630:	08 95       	ret

00000632 <LCD_I2C_init>:
     632:	0e 94 22 02 	call	0x444	; 0x444 <Master_init>
     636:	0e 94 57 02 	call	0x4ae	; 0x4ae <Master_START_init>
     63a:	8f e5       	ldi	r24, 0x5F	; 95
     63c:	9a ee       	ldi	r25, 0xEA	; 234
     63e:	01 97       	sbiw	r24, 0x01	; 1
     640:	f1 f7       	brne	.-4      	; 0x63e <LCD_I2C_init+0xc>
     642:	00 c0       	rjmp	.+0      	; 0x644 <LCD_I2C_init+0x12>
     644:	00 00       	nop
     646:	64 e3       	ldi	r22, 0x34	; 52
     648:	8e e4       	ldi	r24, 0x4E	; 78
     64a:	0e 94 75 02 	call	0x4ea	; 0x4ea <Master_transmitter_init>
     64e:	80 e3       	ldi	r24, 0x30	; 48
     650:	0e 94 a6 02 	call	0x54c	; 0x54c <Master_continue_transmit_data>
     654:	8f e1       	ldi	r24, 0x1F	; 31
     656:	9e e4       	ldi	r25, 0x4E	; 78
     658:	01 97       	sbiw	r24, 0x01	; 1
     65a:	f1 f7       	brne	.-4      	; 0x658 <LCD_I2C_init+0x26>
     65c:	00 c0       	rjmp	.+0      	; 0x65e <LCD_I2C_init+0x2c>
     65e:	00 00       	nop
     660:	84 e3       	ldi	r24, 0x34	; 52
     662:	0e 94 a6 02 	call	0x54c	; 0x54c <Master_continue_transmit_data>
     666:	80 e3       	ldi	r24, 0x30	; 48
     668:	0e 94 a6 02 	call	0x54c	; 0x54c <Master_continue_transmit_data>
     66c:	87 e5       	ldi	r24, 0x57	; 87
     66e:	92 e0       	ldi	r25, 0x02	; 2
     670:	01 97       	sbiw	r24, 0x01	; 1
     672:	f1 f7       	brne	.-4      	; 0x670 <LCD_I2C_init+0x3e>
     674:	00 c0       	rjmp	.+0      	; 0x676 <LCD_I2C_init+0x44>
     676:	00 00       	nop
     678:	84 e3       	ldi	r24, 0x34	; 52
     67a:	0e 94 a6 02 	call	0x54c	; 0x54c <Master_continue_transmit_data>
     67e:	80 e3       	ldi	r24, 0x30	; 48
     680:	0e 94 a6 02 	call	0x54c	; 0x54c <Master_continue_transmit_data>
     684:	87 e5       	ldi	r24, 0x57	; 87
     686:	92 e0       	ldi	r25, 0x02	; 2
     688:	01 97       	sbiw	r24, 0x01	; 1
     68a:	f1 f7       	brne	.-4      	; 0x688 <LCD_I2C_init+0x56>
     68c:	00 c0       	rjmp	.+0      	; 0x68e <LCD_I2C_init+0x5c>
     68e:	00 00       	nop
     690:	84 e2       	ldi	r24, 0x24	; 36
     692:	0e 94 a6 02 	call	0x54c	; 0x54c <Master_continue_transmit_data>
     696:	80 e2       	ldi	r24, 0x20	; 32
     698:	0e 94 a6 02 	call	0x54c	; 0x54c <Master_continue_transmit_data>
     69c:	0e 94 c6 02 	call	0x58c	; 0x58c <Master_terminate>
     6a0:	87 e5       	ldi	r24, 0x57	; 87
     6a2:	92 e0       	ldi	r25, 0x02	; 2
     6a4:	01 97       	sbiw	r24, 0x01	; 1
     6a6:	f1 f7       	brne	.-4      	; 0x6a4 <LCD_I2C_init+0x72>
     6a8:	00 c0       	rjmp	.+0      	; 0x6aa <LCD_I2C_init+0x78>
     6aa:	00 00       	nop
     6ac:	60 e0       	ldi	r22, 0x00	; 0
     6ae:	70 e0       	ldi	r23, 0x00	; 0
     6b0:	cb 01       	movw	r24, r22
     6b2:	08 95       	ret

000006b4 <LCD_I2C_set>:
     6b4:	88 e2       	ldi	r24, 0x28	; 40
     6b6:	0e 94 f3 02 	call	0x5e6	; 0x5e6 <LCD_I2C_transmit_cmd>
     6ba:	8c e0       	ldi	r24, 0x0C	; 12
     6bc:	0e 94 f3 02 	call	0x5e6	; 0x5e6 <LCD_I2C_transmit_cmd>
     6c0:	81 e0       	ldi	r24, 0x01	; 1
     6c2:	0e 94 f3 02 	call	0x5e6	; 0x5e6 <LCD_I2C_transmit_cmd>
     6c6:	8f e3       	ldi	r24, 0x3F	; 63
     6c8:	9f e1       	ldi	r25, 0x1F	; 31
     6ca:	01 97       	sbiw	r24, 0x01	; 1
     6cc:	f1 f7       	brne	.-4      	; 0x6ca <LCD_I2C_set+0x16>
     6ce:	00 c0       	rjmp	.+0      	; 0x6d0 <LCD_I2C_set+0x1c>
     6d0:	00 00       	nop
     6d2:	86 e0       	ldi	r24, 0x06	; 6
     6d4:	0e 94 f3 02 	call	0x5e6	; 0x5e6 <LCD_I2C_transmit_cmd>
     6d8:	60 e0       	ldi	r22, 0x00	; 0
     6da:	70 e0       	ldi	r23, 0x00	; 0
     6dc:	cb 01       	movw	r24, r22
     6de:	08 95       	ret

000006e0 <LCD_Clear>:
     6e0:	81 e0       	ldi	r24, 0x01	; 1
     6e2:	0e 94 f3 02 	call	0x5e6	; 0x5e6 <LCD_I2C_transmit_cmd>
     6e6:	8f e3       	ldi	r24, 0x3F	; 63
     6e8:	9f e1       	ldi	r25, 0x1F	; 31
     6ea:	01 97       	sbiw	r24, 0x01	; 1
     6ec:	f1 f7       	brne	.-4      	; 0x6ea <LCD_Clear+0xa>
     6ee:	00 c0       	rjmp	.+0      	; 0x6f0 <LCD_Clear+0x10>
     6f0:	00 00       	nop
     6f2:	60 e0       	ldi	r22, 0x00	; 0
     6f4:	70 e0       	ldi	r23, 0x00	; 0
     6f6:	cb 01       	movw	r24, r22
     6f8:	08 95       	ret

000006fa <LCD_I2C_write_string>:
     6fa:	cf 93       	push	r28
     6fc:	df 93       	push	r29
     6fe:	2f ef       	ldi	r18, 0xFF	; 255
     700:	24 0f       	add	r18, r20
     702:	20 31       	cpi	r18, 0x10	; 16
     704:	e0 f4       	brcc	.+56     	; 0x73e <LCD_I2C_write_string+0x44>
     706:	ec 01       	movw	r28, r24
     708:	61 30       	cpi	r22, 0x01	; 1
     70a:	19 f0       	breq	.+6      	; 0x712 <LCD_I2C_write_string+0x18>
     70c:	62 30       	cpi	r22, 0x02	; 2
     70e:	31 f0       	breq	.+12     	; 0x71c <LCD_I2C_write_string+0x22>
     710:	1b c0       	rjmp	.+54     	; 0x748 <LCD_I2C_write_string+0x4e>
     712:	8f e7       	ldi	r24, 0x7F	; 127
     714:	84 0f       	add	r24, r20
     716:	0e 94 f3 02 	call	0x5e6	; 0x5e6 <LCD_I2C_transmit_cmd>
     71a:	04 c0       	rjmp	.+8      	; 0x724 <LCD_I2C_write_string+0x2a>
     71c:	8f eb       	ldi	r24, 0xBF	; 191
     71e:	84 0f       	add	r24, r20
     720:	0e 94 f3 02 	call	0x5e6	; 0x5e6 <LCD_I2C_transmit_cmd>
     724:	88 81       	ld	r24, Y
     726:	88 23       	and	r24, r24
     728:	a1 f0       	breq	.+40     	; 0x752 <LCD_I2C_write_string+0x58>
     72a:	21 96       	adiw	r28, 0x01	; 1
     72c:	0e 94 d1 02 	call	0x5a2	; 0x5a2 <LCD_I2C_transmit_data>
     730:	89 91       	ld	r24, Y+
     732:	81 11       	cpse	r24, r1
     734:	fb cf       	rjmp	.-10     	; 0x72c <LCD_I2C_write_string+0x32>
     736:	60 e0       	ldi	r22, 0x00	; 0
     738:	70 e0       	ldi	r23, 0x00	; 0
     73a:	cb 01       	movw	r24, r22
     73c:	0d c0       	rjmp	.+26     	; 0x758 <LCD_I2C_write_string+0x5e>
     73e:	6e ef       	ldi	r22, 0xFE	; 254
     740:	7f ef       	ldi	r23, 0xFF	; 255
     742:	8f ef       	ldi	r24, 0xFF	; 255
     744:	9f ef       	ldi	r25, 0xFF	; 255
     746:	08 c0       	rjmp	.+16     	; 0x758 <LCD_I2C_write_string+0x5e>
     748:	6d ef       	ldi	r22, 0xFD	; 253
     74a:	7f ef       	ldi	r23, 0xFF	; 255
     74c:	8f ef       	ldi	r24, 0xFF	; 255
     74e:	9f ef       	ldi	r25, 0xFF	; 255
     750:	03 c0       	rjmp	.+6      	; 0x758 <LCD_I2C_write_string+0x5e>
     752:	60 e0       	ldi	r22, 0x00	; 0
     754:	70 e0       	ldi	r23, 0x00	; 0
     756:	cb 01       	movw	r24, r22
     758:	df 91       	pop	r29
     75a:	cf 91       	pop	r28
     75c:	08 95       	ret

0000075e <LCD_I2C_write_number>:
     75e:	4f 92       	push	r4
     760:	5f 92       	push	r5
     762:	6f 92       	push	r6
     764:	7f 92       	push	r7
     766:	af 92       	push	r10
     768:	bf 92       	push	r11
     76a:	cf 92       	push	r12
     76c:	df 92       	push	r13
     76e:	ef 92       	push	r14
     770:	ff 92       	push	r15
     772:	1f 93       	push	r17
     774:	cf 93       	push	r28
     776:	df 93       	push	r29
     778:	cd b7       	in	r28, 0x3d	; 61
     77a:	de b7       	in	r29, 0x3e	; 62
     77c:	2a 97       	sbiw	r28, 0x0a	; 10
     77e:	0f b6       	in	r0, 0x3f	; 63
     780:	f8 94       	cli
     782:	de bf       	out	0x3e, r29	; 62
     784:	0f be       	out	0x3f, r0	; 63
     786:	cd bf       	out	0x3d, r28	; 61
     788:	6b 01       	movw	r12, r22
     78a:	7c 01       	movw	r14, r24
     78c:	8f ef       	ldi	r24, 0xFF	; 255
     78e:	82 0f       	add	r24, r18
     790:	80 31       	cpi	r24, 0x10	; 16
     792:	08 f0       	brcs	.+2      	; 0x796 <LCD_I2C_write_number+0x38>
     794:	67 c0       	rjmp	.+206    	; 0x864 <LCD_I2C_write_number+0x106>
     796:	41 30       	cpi	r20, 0x01	; 1
     798:	19 f0       	breq	.+6      	; 0x7a0 <LCD_I2C_write_number+0x42>
     79a:	42 30       	cpi	r20, 0x02	; 2
     79c:	31 f0       	breq	.+12     	; 0x7aa <LCD_I2C_write_number+0x4c>
     79e:	67 c0       	rjmp	.+206    	; 0x86e <LCD_I2C_write_number+0x110>
     7a0:	8f e7       	ldi	r24, 0x7F	; 127
     7a2:	82 0f       	add	r24, r18
     7a4:	0e 94 f3 02 	call	0x5e6	; 0x5e6 <LCD_I2C_transmit_cmd>
     7a8:	04 c0       	rjmp	.+8      	; 0x7b2 <LCD_I2C_write_number+0x54>
     7aa:	8f eb       	ldi	r24, 0xBF	; 191
     7ac:	82 0f       	add	r24, r18
     7ae:	0e 94 f3 02 	call	0x5e6	; 0x5e6 <LCD_I2C_transmit_cmd>
     7b2:	c1 14       	cp	r12, r1
     7b4:	d1 04       	cpc	r13, r1
     7b6:	e1 04       	cpc	r14, r1
     7b8:	f1 04       	cpc	r15, r1
     7ba:	39 f4       	brne	.+14     	; 0x7ca <LCD_I2C_write_number+0x6c>
     7bc:	80 e3       	ldi	r24, 0x30	; 48
     7be:	0e 94 d1 02 	call	0x5a2	; 0x5a2 <LCD_I2C_transmit_data>
     7c2:	60 e0       	ldi	r22, 0x00	; 0
     7c4:	70 e0       	ldi	r23, 0x00	; 0
     7c6:	cb 01       	movw	r24, r22
     7c8:	5e c0       	rjmp	.+188    	; 0x886 <LCD_I2C_write_number+0x128>
     7ca:	ff 20       	and	r15, r15
     7cc:	8c f4       	brge	.+34     	; 0x7f0 <LCD_I2C_write_number+0x92>
     7ce:	f0 94       	com	r15
     7d0:	e0 94       	com	r14
     7d2:	d0 94       	com	r13
     7d4:	c0 94       	com	r12
     7d6:	c1 1c       	adc	r12, r1
     7d8:	d1 1c       	adc	r13, r1
     7da:	e1 1c       	adc	r14, r1
     7dc:	f1 1c       	adc	r15, r1
     7de:	8d e2       	ldi	r24, 0x2D	; 45
     7e0:	0e 94 d1 02 	call	0x5a2	; 0x5a2 <LCD_I2C_transmit_data>
     7e4:	c1 14       	cp	r12, r1
     7e6:	d1 04       	cpc	r13, r1
     7e8:	e1 04       	cpc	r14, r1
     7ea:	f1 04       	cpc	r15, r1
     7ec:	09 f4       	brne	.+2      	; 0x7f0 <LCD_I2C_write_number+0x92>
     7ee:	44 c0       	rjmp	.+136    	; 0x878 <LCD_I2C_write_number+0x11a>
     7f0:	80 e0       	ldi	r24, 0x00	; 0
     7f2:	0f 2e       	mov	r0, r31
     7f4:	fa e0       	ldi	r31, 0x0A	; 10
     7f6:	4f 2e       	mov	r4, r31
     7f8:	51 2c       	mov	r5, r1
     7fa:	61 2c       	mov	r6, r1
     7fc:	71 2c       	mov	r7, r1
     7fe:	f0 2d       	mov	r31, r0
     800:	11 e0       	ldi	r17, 0x01	; 1
     802:	18 0f       	add	r17, r24
     804:	aa 24       	eor	r10, r10
     806:	a3 94       	inc	r10
     808:	b1 2c       	mov	r11, r1
     80a:	ac 0e       	add	r10, r28
     80c:	bd 1e       	adc	r11, r29
     80e:	a8 0e       	add	r10, r24
     810:	b1 1c       	adc	r11, r1
     812:	c7 01       	movw	r24, r14
     814:	b6 01       	movw	r22, r12
     816:	a3 01       	movw	r20, r6
     818:	92 01       	movw	r18, r4
     81a:	0e 94 78 09 	call	0x12f0	; 0x12f0 <__divmodsi4>
     81e:	60 5d       	subi	r22, 0xD0	; 208
     820:	f5 01       	movw	r30, r10
     822:	60 83       	st	Z, r22
     824:	c2 2e       	mov	r12, r18
     826:	d3 2e       	mov	r13, r19
     828:	e4 2e       	mov	r14, r20
     82a:	f5 2e       	mov	r15, r21
     82c:	81 2f       	mov	r24, r17
     82e:	c1 14       	cp	r12, r1
     830:	d1 04       	cpc	r13, r1
     832:	e1 04       	cpc	r14, r1
     834:	f1 04       	cpc	r15, r1
     836:	21 f7       	brne	.-56     	; 0x800 <LCD_I2C_write_number+0xa2>
     838:	81 2f       	mov	r24, r17
     83a:	90 e0       	ldi	r25, 0x00	; 0
     83c:	01 97       	sbiw	r24, 0x01	; 1
     83e:	02 f1       	brmi	.+64     	; 0x880 <LCD_I2C_write_number+0x122>
     840:	ce 01       	movw	r24, r28
     842:	01 96       	adiw	r24, 0x01	; 1
     844:	7c 01       	movw	r14, r24
     846:	e1 0e       	add	r14, r17
     848:	f1 1c       	adc	r15, r1
     84a:	6c 01       	movw	r12, r24
     84c:	f7 01       	movw	r30, r14
     84e:	82 91       	ld	r24, -Z
     850:	7f 01       	movw	r14, r30
     852:	0e 94 d1 02 	call	0x5a2	; 0x5a2 <LCD_I2C_transmit_data>
     856:	ec 14       	cp	r14, r12
     858:	fd 04       	cpc	r15, r13
     85a:	c1 f7       	brne	.-16     	; 0x84c <LCD_I2C_write_number+0xee>
     85c:	60 e0       	ldi	r22, 0x00	; 0
     85e:	70 e0       	ldi	r23, 0x00	; 0
     860:	cb 01       	movw	r24, r22
     862:	11 c0       	rjmp	.+34     	; 0x886 <LCD_I2C_write_number+0x128>
     864:	6e ef       	ldi	r22, 0xFE	; 254
     866:	7f ef       	ldi	r23, 0xFF	; 255
     868:	8f ef       	ldi	r24, 0xFF	; 255
     86a:	9f ef       	ldi	r25, 0xFF	; 255
     86c:	0c c0       	rjmp	.+24     	; 0x886 <LCD_I2C_write_number+0x128>
     86e:	6d ef       	ldi	r22, 0xFD	; 253
     870:	7f ef       	ldi	r23, 0xFF	; 255
     872:	8f ef       	ldi	r24, 0xFF	; 255
     874:	9f ef       	ldi	r25, 0xFF	; 255
     876:	07 c0       	rjmp	.+14     	; 0x886 <LCD_I2C_write_number+0x128>
     878:	60 e0       	ldi	r22, 0x00	; 0
     87a:	70 e0       	ldi	r23, 0x00	; 0
     87c:	cb 01       	movw	r24, r22
     87e:	03 c0       	rjmp	.+6      	; 0x886 <LCD_I2C_write_number+0x128>
     880:	60 e0       	ldi	r22, 0x00	; 0
     882:	70 e0       	ldi	r23, 0x00	; 0
     884:	cb 01       	movw	r24, r22
     886:	2a 96       	adiw	r28, 0x0a	; 10
     888:	0f b6       	in	r0, 0x3f	; 63
     88a:	f8 94       	cli
     88c:	de bf       	out	0x3e, r29	; 62
     88e:	0f be       	out	0x3f, r0	; 63
     890:	cd bf       	out	0x3d, r28	; 61
     892:	df 91       	pop	r29
     894:	cf 91       	pop	r28
     896:	1f 91       	pop	r17
     898:	ff 90       	pop	r15
     89a:	ef 90       	pop	r14
     89c:	df 90       	pop	r13
     89e:	cf 90       	pop	r12
     8a0:	bf 90       	pop	r11
     8a2:	af 90       	pop	r10
     8a4:	7f 90       	pop	r7
     8a6:	6f 90       	pop	r6
     8a8:	5f 90       	pop	r5
     8aa:	4f 90       	pop	r4
     8ac:	08 95       	ret

000008ae <SPI_master_init>:
uint32_t RFID_writeReg(uint8_t regAddr, uint8_t data)
{
	uint8_t formattedRegAddr = (regAddr << 1) & 0x7E;
	SPI_writeReg(formattedRegAddr,data);
	return SUCCESS;
}
     8ae:	84 b1       	in	r24, 0x04	; 4
     8b0:	8c 62       	ori	r24, 0x2C	; 44
     8b2:	84 b9       	out	0x04, r24	; 4
     8b4:	24 98       	cbi	0x04, 4	; 4
     8b6:	2a 9a       	sbi	0x05, 2	; 5
     8b8:	82 e5       	ldi	r24, 0x52	; 82
     8ba:	8c bd       	out	0x2c, r24	; 44
     8bc:	8d b5       	in	r24, 0x2d	; 45
     8be:	8e 7f       	andi	r24, 0xFE	; 254
     8c0:	8d bd       	out	0x2d, r24	; 45
     8c2:	60 e0       	ldi	r22, 0x00	; 0
     8c4:	70 e0       	ldi	r23, 0x00	; 0
     8c6:	cb 01       	movw	r24, r22
     8c8:	08 95       	ret

000008ca <SPI_writeReg>:
     8ca:	2a 98       	cbi	0x05, 2	; 5
     8cc:	8e bd       	out	0x2e, r24	; 46
     8ce:	8f e9       	ldi	r24, 0x9F	; 159
     8d0:	96 e8       	ldi	r25, 0x86	; 134
     8d2:	a1 e0       	ldi	r26, 0x01	; 1
     8d4:	b0 e0       	ldi	r27, 0x00	; 0
     8d6:	0d b4       	in	r0, 0x2d	; 45
     8d8:	07 fe       	sbrs	r0, 7
     8da:	06 c0       	rjmp	.+12     	; 0x8e8 <SPI_writeReg+0x1e>
     8dc:	2e b5       	in	r18, 0x2e	; 46
     8de:	89 2b       	or	r24, r25
     8e0:	8a 2b       	or	r24, r26
     8e2:	8b 2b       	or	r24, r27
     8e4:	29 f4       	brne	.+10     	; 0x8f0 <SPI_writeReg+0x26>
     8e6:	1b c0       	rjmp	.+54     	; 0x91e <__stack+0x1f>
     8e8:	01 97       	sbiw	r24, 0x01	; 1
     8ea:	a1 09       	sbc	r26, r1
     8ec:	b1 09       	sbc	r27, r1
     8ee:	98 f7       	brcc	.-26     	; 0x8d6 <SPI_writeReg+0xc>
     8f0:	6e bd       	out	0x2e, r22	; 46
     8f2:	8f e9       	ldi	r24, 0x9F	; 159
     8f4:	96 e8       	ldi	r25, 0x86	; 134
     8f6:	a1 e0       	ldi	r26, 0x01	; 1
     8f8:	b0 e0       	ldi	r27, 0x00	; 0
     8fa:	0d b4       	in	r0, 0x2d	; 45
     8fc:	07 fe       	sbrs	r0, 7
     8fe:	06 c0       	rjmp	.+12     	; 0x90c <__stack+0xd>
     900:	2e b5       	in	r18, 0x2e	; 46
     902:	89 2b       	or	r24, r25
     904:	8a 2b       	or	r24, r26
     906:	8b 2b       	or	r24, r27
     908:	29 f4       	brne	.+10     	; 0x914 <__stack+0x15>
     90a:	0e c0       	rjmp	.+28     	; 0x928 <__stack+0x29>
     90c:	01 97       	sbiw	r24, 0x01	; 1
     90e:	a1 09       	sbc	r26, r1
     910:	b1 09       	sbc	r27, r1
     912:	98 f7       	brcc	.-26     	; 0x8fa <SPI_writeReg+0x30>
     914:	2a 9a       	sbi	0x05, 2	; 5
     916:	60 e0       	ldi	r22, 0x00	; 0
     918:	70 e0       	ldi	r23, 0x00	; 0
     91a:	cb 01       	movw	r24, r22
     91c:	08 95       	ret
     91e:	61 e0       	ldi	r22, 0x01	; 1
     920:	70 e0       	ldi	r23, 0x00	; 0
     922:	80 e0       	ldi	r24, 0x00	; 0
     924:	90 e0       	ldi	r25, 0x00	; 0
     926:	08 95       	ret
     928:	61 e0       	ldi	r22, 0x01	; 1
     92a:	70 e0       	ldi	r23, 0x00	; 0
     92c:	80 e0       	ldi	r24, 0x00	; 0
     92e:	90 e0       	ldi	r25, 0x00	; 0
     930:	08 95       	ret

00000932 <SPI_readReg>:

uint32_t SPI_readReg(uint8_t regAddr)
{
	uint8_t received_data = 0;
	uint8_t data = 0;
	SPI_PORT = SPI_PORT & (~(1 << SS));
     932:	2a 98       	cbi	0x05, 2	; 5
	SPDR = regAddr;
     934:	8e bd       	out	0x2e, r24	; 46
	uint32_t timeout = 100000;
	while (timeout--)
     936:	8f e9       	ldi	r24, 0x9F	; 159
     938:	96 e8       	ldi	r25, 0x86	; 134
     93a:	a1 e0       	ldi	r26, 0x01	; 1
     93c:	b0 e0       	ldi	r27, 0x00	; 0
	{
		if ((SPSR >> SPIF) & 1)
     93e:	0d b4       	in	r0, 0x2d	; 45
     940:	07 fe       	sbrs	r0, 7
     942:	06 c0       	rjmp	.+12     	; 0x950 <SPI_readReg+0x1e>
		{
			received_data = SPDR;
     944:	6e b5       	in	r22, 0x2e	; 46
			break;
		}
	}
	ASSERT(timeout == 0, TRANSFER_SPI_FAILED);
     946:	89 2b       	or	r24, r25
     948:	8a 2b       	or	r24, r26
     94a:	8b 2b       	or	r24, r27
     94c:	31 f4       	brne	.+12     	; 0x95a <SPI_readReg+0x28>
     94e:	1c c0       	rjmp	.+56     	; 0x988 <SPI_readReg+0x56>
	uint8_t received_data = 0;
	uint8_t data = 0;
	SPI_PORT = SPI_PORT & (~(1 << SS));
	SPDR = regAddr;
	uint32_t timeout = 100000;
	while (timeout--)
     950:	01 97       	sbiw	r24, 0x01	; 1
     952:	a1 09       	sbc	r26, r1
     954:	b1 09       	sbc	r27, r1
     956:	98 f7       	brcc	.-26     	; 0x93e <SPI_readReg+0xc>
	return SUCCESS;
}

uint32_t SPI_readReg(uint8_t regAddr)
{
	uint8_t received_data = 0;
     958:	60 e0       	ldi	r22, 0x00	; 0
			received_data = SPDR;
			break;
		}
	}
	ASSERT(timeout == 0, TRANSFER_SPI_FAILED);
	SPDR = data;
     95a:	1e bc       	out	0x2e, r1	; 46
	timeout = 100000;
	while (timeout--)
     95c:	8f e9       	ldi	r24, 0x9F	; 159
     95e:	96 e8       	ldi	r25, 0x86	; 134
     960:	a1 e0       	ldi	r26, 0x01	; 1
     962:	b0 e0       	ldi	r27, 0x00	; 0
	{
		if ((SPSR >> SPIF) & 1)
     964:	0d b4       	in	r0, 0x2d	; 45
     966:	07 fe       	sbrs	r0, 7
     968:	06 c0       	rjmp	.+12     	; 0x976 <SPI_readReg+0x44>
		{
			received_data = SPDR;
     96a:	6e b5       	in	r22, 0x2e	; 46
			break;
		}
	}
	ASSERT(timeout == 0, TRANSFER_SPI_FAILED);
     96c:	89 2b       	or	r24, r25
     96e:	8a 2b       	or	r24, r26
     970:	8b 2b       	or	r24, r27
     972:	29 f4       	brne	.+10     	; 0x97e <SPI_readReg+0x4c>
     974:	0e c0       	rjmp	.+28     	; 0x992 <SPI_readReg+0x60>
		}
	}
	ASSERT(timeout == 0, TRANSFER_SPI_FAILED);
	SPDR = data;
	timeout = 100000;
	while (timeout--)
     976:	01 97       	sbiw	r24, 0x01	; 1
     978:	a1 09       	sbc	r26, r1
     97a:	b1 09       	sbc	r27, r1
     97c:	98 f7       	brcc	.-26     	; 0x964 <SPI_readReg+0x32>
			received_data = SPDR;
			break;
		}
	}
	ASSERT(timeout == 0, TRANSFER_SPI_FAILED);
	SPI_PORT = SPI_PORT | (1 << SS);
     97e:	2a 9a       	sbi	0x05, 2	; 5
	return received_data;
     980:	70 e0       	ldi	r23, 0x00	; 0
     982:	80 e0       	ldi	r24, 0x00	; 0
     984:	90 e0       	ldi	r25, 0x00	; 0
     986:	08 95       	ret
		{
			received_data = SPDR;
			break;
		}
	}
	ASSERT(timeout == 0, TRANSFER_SPI_FAILED);
     988:	61 e0       	ldi	r22, 0x01	; 1
     98a:	70 e0       	ldi	r23, 0x00	; 0
     98c:	80 e0       	ldi	r24, 0x00	; 0
     98e:	90 e0       	ldi	r25, 0x00	; 0
     990:	08 95       	ret
		{
			received_data = SPDR;
			break;
		}
	}
	ASSERT(timeout == 0, TRANSFER_SPI_FAILED);
     992:	61 e0       	ldi	r22, 0x01	; 1
     994:	70 e0       	ldi	r23, 0x00	; 0
     996:	80 e0       	ldi	r24, 0x00	; 0
     998:	90 e0       	ldi	r25, 0x00	; 0
	SPI_PORT = SPI_PORT | (1 << SS);
	return received_data;
}
     99a:	08 95       	ret

0000099c <RFID_readReg>:

uint32_t RFID_readReg(uint8_t regAddr)
{
	uint8_t formattedRegAddr = (regAddr << 1) | 0x80;
	uint8_t received_data = SPI_readReg(formattedRegAddr);
     99c:	88 0f       	add	r24, r24
     99e:	80 68       	ori	r24, 0x80	; 128
     9a0:	0e 94 99 04 	call	0x932	; 0x932 <SPI_readReg>
	return received_data;
     9a4:	77 27       	eor	r23, r23
     9a6:	88 27       	eor	r24, r24
     9a8:	99 27       	eor	r25, r25
}
     9aa:	08 95       	ret

000009ac <RFID_hard_reset>:

void RFID_hard_reset()
{
	RFID_RST_DDR |= (1 << RFID_RST_PIN);
     9ac:	50 9a       	sbi	0x0a, 0	; 10
	RFID_RST_PORT &= ~(1 << RFID_RST_PIN); 
     9ae:	58 98       	cbi	0x0b, 0	; 11
     9b0:	8f e1       	ldi	r24, 0x1F	; 31
     9b2:	9e e4       	ldi	r25, 0x4E	; 78
     9b4:	01 97       	sbiw	r24, 0x01	; 1
     9b6:	f1 f7       	brne	.-4      	; 0x9b4 <RFID_hard_reset+0x8>
     9b8:	00 c0       	rjmp	.+0      	; 0x9ba <RFID_hard_reset+0xe>
     9ba:	00 00       	nop
	_delay_ms(5);
	RFID_RST_PORT |= (1 << RFID_RST_PIN);  
     9bc:	58 9a       	sbi	0x0b, 0	; 11
     9be:	9f ef       	ldi	r25, 0xFF	; 255
     9c0:	20 e7       	ldi	r18, 0x70	; 112
     9c2:	82 e0       	ldi	r24, 0x02	; 2
     9c4:	91 50       	subi	r25, 0x01	; 1
     9c6:	20 40       	sbci	r18, 0x00	; 0
     9c8:	80 40       	sbci	r24, 0x00	; 0
     9ca:	e1 f7       	brne	.-8      	; 0x9c4 <RFID_hard_reset+0x18>
     9cc:	00 c0       	rjmp	.+0      	; 0x9ce <RFID_hard_reset+0x22>
     9ce:	00 00       	nop
     9d0:	08 95       	ret

000009d2 <rfid_init>:
}

uint32_t RFID_writeReg(uint8_t regAddr, uint8_t data)
{
	uint8_t formattedRegAddr = (regAddr << 1) & 0x7E;
	SPI_writeReg(formattedRegAddr,data);
     9d2:	6f e0       	ldi	r22, 0x0F	; 15
     9d4:	82 e0       	ldi	r24, 0x02	; 2
     9d6:	0e 94 65 04 	call	0x8ca	; 0x8ca <SPI_writeReg>
     9da:	2f ef       	ldi	r18, 0xFF	; 255
     9dc:	80 e7       	ldi	r24, 0x70	; 112
     9de:	92 e0       	ldi	r25, 0x02	; 2
     9e0:	21 50       	subi	r18, 0x01	; 1
     9e2:	80 40       	sbci	r24, 0x00	; 0
     9e4:	90 40       	sbci	r25, 0x00	; 0
     9e6:	e1 f7       	brne	.-8      	; 0x9e0 <rfid_init+0xe>
     9e8:	00 c0       	rjmp	.+0      	; 0x9ea <rfid_init+0x18>
     9ea:	00 00       	nop
     9ec:	60 e8       	ldi	r22, 0x80	; 128
     9ee:	84 e5       	ldi	r24, 0x54	; 84
     9f0:	0e 94 65 04 	call	0x8ca	; 0x8ca <SPI_writeReg>
     9f4:	69 ea       	ldi	r22, 0xA9	; 169
     9f6:	86 e5       	ldi	r24, 0x56	; 86
     9f8:	0e 94 65 04 	call	0x8ca	; 0x8ca <SPI_writeReg>
     9fc:	63 e0       	ldi	r22, 0x03	; 3
     9fe:	88 e5       	ldi	r24, 0x58	; 88
     a00:	0e 94 65 04 	call	0x8ca	; 0x8ca <SPI_writeReg>
     a04:	68 ee       	ldi	r22, 0xE8	; 232
     a06:	8a e5       	ldi	r24, 0x5A	; 90
     a08:	0e 94 65 04 	call	0x8ca	; 0x8ca <SPI_writeReg>
     a0c:	60 e0       	ldi	r22, 0x00	; 0
     a0e:	84 e2       	ldi	r24, 0x24	; 36
     a10:	0e 94 65 04 	call	0x8ca	; 0x8ca <SPI_writeReg>
     a14:	60 e0       	ldi	r22, 0x00	; 0
     a16:	86 e2       	ldi	r24, 0x26	; 38
     a18:	0e 94 65 04 	call	0x8ca	; 0x8ca <SPI_writeReg>
     a1c:	66 e2       	ldi	r22, 0x26	; 38
     a1e:	88 e4       	ldi	r24, 0x48	; 72
     a20:	0e 94 65 04 	call	0x8ca	; 0x8ca <SPI_writeReg>
     a24:	6d e3       	ldi	r22, 0x3D	; 61
     a26:	82 e2       	ldi	r24, 0x22	; 34
     a28:	0e 94 65 04 	call	0x8ca	; 0x8ca <SPI_writeReg>
     a2c:	60 e4       	ldi	r22, 0x40	; 64
     a2e:	8a e2       	ldi	r24, 0x2A	; 42
     a30:	0e 94 65 04 	call	0x8ca	; 0x8ca <SPI_writeReg>
	RFID_writeReg(RxModeReg, 0x00);
	RFID_writeReg(ModWidthReg, 0x26);
	RFID_writeReg(ModeReg, 0x3D);
	RFID_writeReg(TxASKReg, 0x40);       
	
	uint8_t value = RFID_readReg(TxControlReg);
     a34:	84 e1       	ldi	r24, 0x14	; 20
     a36:	0e 94 ce 04 	call	0x99c	; 0x99c <RFID_readReg>
	if (!(value & 0x03)) {
     a3a:	86 2f       	mov	r24, r22
     a3c:	83 70       	andi	r24, 0x03	; 3
     a3e:	21 f4       	brne	.+8      	; 0xa48 <rfid_init+0x76>
}

uint32_t RFID_writeReg(uint8_t regAddr, uint8_t data)
{
	uint8_t formattedRegAddr = (regAddr << 1) & 0x7E;
	SPI_writeReg(formattedRegAddr,data);
     a40:	63 60       	ori	r22, 0x03	; 3
     a42:	88 e2       	ldi	r24, 0x28	; 40
     a44:	0e 94 65 04 	call	0x8ca	; 0x8ca <SPI_writeReg>
     a48:	08 95       	ret

00000a4a <READ_ATQA_CMD>:
		RFID_writeReg(TxControlReg, value | 0x03);
	}
}

uint32_t READ_ATQA_CMD()
{
     a4a:	cf 93       	push	r28
     a4c:	df 93       	push	r29
}

uint32_t RFID_writeReg(uint8_t regAddr, uint8_t data)
{
	uint8_t formattedRegAddr = (regAddr << 1) & 0x7E;
	SPI_writeReg(formattedRegAddr,data);
     a4e:	67 e0       	ldi	r22, 0x07	; 7
     a50:	8a e1       	ldi	r24, 0x1A	; 26
     a52:	0e 94 65 04 	call	0x8ca	; 0x8ca <SPI_writeReg>
     a56:	66 e2       	ldi	r22, 0x26	; 38
     a58:	82 e1       	ldi	r24, 0x12	; 18
     a5a:	0e 94 65 04 	call	0x8ca	; 0x8ca <SPI_writeReg>
     a5e:	6c e0       	ldi	r22, 0x0C	; 12
     a60:	82 e0       	ldi	r24, 0x02	; 2
     a62:	0e 94 65 04 	call	0x8ca	; 0x8ca <SPI_writeReg>
     a66:	67 e8       	ldi	r22, 0x87	; 135
     a68:	8a e1       	ldi	r24, 0x1A	; 26
     a6a:	0e 94 65 04 	call	0x8ca	; 0x8ca <SPI_writeReg>
     a6e:	c1 e5       	ldi	r28, 0x51	; 81
     a70:	d3 ec       	ldi	r29, 0xC3	; 195
	RFID_writeReg(COMMAND_REG, TRANSCEIVE_CMD);
	RFID_writeReg(BIT_FRAMING_REG,0x87);
	uint8_t irq = 0;
	uint16_t timeout = 50000;
	do {
		irq = RFID_readReg(ComIrqReg);
     a72:	84 e0       	ldi	r24, 0x04	; 4
     a74:	0e 94 ce 04 	call	0x99c	; 0x99c <RFID_readReg>
	} while ((!(irq & 0x20)) && (timeout--));
     a78:	65 fd       	sbrc	r22, 5
     a7a:	02 c0       	rjmp	.+4      	; 0xa80 <READ_ATQA_CMD+0x36>
     a7c:	21 97       	sbiw	r28, 0x01	; 1
     a7e:	c9 f7       	brne	.-14     	; 0xa72 <READ_ATQA_CMD+0x28>
	uint8_t errorRegValue = RFID_readReg(ERROR_REG);
     a80:	86 e0       	ldi	r24, 0x06	; 6
     a82:	0e 94 ce 04 	call	0x99c	; 0x99c <RFID_readReg>
     a86:	c6 2f       	mov	r28, r22
	uint8_t controlRegValue = RFID_readReg(CONTROL_REG);
     a88:	8c e0       	ldi	r24, 0x0C	; 12
     a8a:	0e 94 ce 04 	call	0x99c	; 0x99c <RFID_readReg>
	if (errorRegValue & ERROR_REG_BITMASK) return RFID_MISC_ERR;
     a8e:	c3 71       	andi	r28, 0x13	; 19
     a90:	21 f5       	brne	.+72     	; 0xada <READ_ATQA_CMD+0x90>
	
	if (controlRegValue & CONTROL_REG_BITMASK) return RFID_INVALID_BYTE_ERR;
     a92:	67 70       	andi	r22, 0x07	; 7
     a94:	39 f5       	brne	.+78     	; 0xae4 <READ_ATQA_CMD+0x9a>
	#else
		//round up by default
		__ticks_dc = (uint32_t)(ceil(fabs(__tmp)));
	#endif

	__builtin_avr_delay_cycles(__ticks_dc);
     a96:	8f e1       	ldi	r24, 0x1F	; 31
     a98:	93 e0       	ldi	r25, 0x03	; 3
     a9a:	01 97       	sbiw	r24, 0x01	; 1
     a9c:	f1 f7       	brne	.-4      	; 0xa9a <READ_ATQA_CMD+0x50>
     a9e:	00 c0       	rjmp	.+0      	; 0xaa0 <READ_ATQA_CMD+0x56>
     aa0:	00 00       	nop
	_delay_us(200);
	uint8_t numFIFObytes = RFID_readReg(FIFO_LEVEL_REG);  // <- LOI DANG O DAY
     aa2:	8a e0       	ldi	r24, 0x0A	; 10
     aa4:	0e 94 ce 04 	call	0x99c	; 0x99c <RFID_readReg>
	ASSERT(numFIFObytes != 2, LENGTH_ATQA_ERR);
     aa8:	62 30       	cpi	r22, 0x02	; 2
     aaa:	09 f5       	brne	.+66     	; 0xaee <READ_ATQA_CMD+0xa4>
	uint8_t tagResponse[2] = {};
	for (int i = 0; i < 2; i++) {
		tagResponse[i] = RFID_readReg(FIFO_DATA_REG);
     aac:	89 e0       	ldi	r24, 0x09	; 9
     aae:	0e 94 ce 04 	call	0x99c	; 0x99c <RFID_readReg>
     ab2:	c6 2f       	mov	r28, r22
     ab4:	89 e0       	ldi	r24, 0x09	; 9
     ab6:	0e 94 ce 04 	call	0x99c	; 0x99c <RFID_readReg>
	}
	ASSERT((tagResponse[0] != 0x04) | (tagResponse[1] != 0x00), CONTENT_ATQA_ERR);
     aba:	81 e0       	ldi	r24, 0x01	; 1
     abc:	c4 30       	cpi	r28, 0x04	; 4
     abe:	09 f4       	brne	.+2      	; 0xac2 <READ_ATQA_CMD+0x78>
     ac0:	80 e0       	ldi	r24, 0x00	; 0
     ac2:	81 11       	cpse	r24, r1
     ac4:	19 c0       	rjmp	.+50     	; 0xaf8 <READ_ATQA_CMD+0xae>
     ac6:	81 e0       	ldi	r24, 0x01	; 1
     ac8:	61 11       	cpse	r22, r1
     aca:	01 c0       	rjmp	.+2      	; 0xace <READ_ATQA_CMD+0x84>
     acc:	80 e0       	ldi	r24, 0x00	; 0
     ace:	81 11       	cpse	r24, r1
     ad0:	13 c0       	rjmp	.+38     	; 0xaf8 <READ_ATQA_CMD+0xae>
	return SUCCESS;
     ad2:	60 e0       	ldi	r22, 0x00	; 0
     ad4:	70 e0       	ldi	r23, 0x00	; 0
     ad6:	cb 01       	movw	r24, r22
     ad8:	13 c0       	rjmp	.+38     	; 0xb00 <READ_ATQA_CMD+0xb6>
	do {
		irq = RFID_readReg(ComIrqReg);
	} while ((!(irq & 0x20)) && (timeout--));
	uint8_t errorRegValue = RFID_readReg(ERROR_REG);
	uint8_t controlRegValue = RFID_readReg(CONTROL_REG);
	if (errorRegValue & ERROR_REG_BITMASK) return RFID_MISC_ERR;
     ada:	62 e0       	ldi	r22, 0x02	; 2
     adc:	70 e0       	ldi	r23, 0x00	; 0
     ade:	80 e0       	ldi	r24, 0x00	; 0
     ae0:	90 e0       	ldi	r25, 0x00	; 0
     ae2:	0e c0       	rjmp	.+28     	; 0xb00 <READ_ATQA_CMD+0xb6>
	
	if (controlRegValue & CONTROL_REG_BITMASK) return RFID_INVALID_BYTE_ERR;
     ae4:	63 e0       	ldi	r22, 0x03	; 3
     ae6:	70 e0       	ldi	r23, 0x00	; 0
     ae8:	80 e0       	ldi	r24, 0x00	; 0
     aea:	90 e0       	ldi	r25, 0x00	; 0
     aec:	09 c0       	rjmp	.+18     	; 0xb00 <READ_ATQA_CMD+0xb6>
	_delay_us(200);
	uint8_t numFIFObytes = RFID_readReg(FIFO_LEVEL_REG);  // <- LOI DANG O DAY
	ASSERT(numFIFObytes != 2, LENGTH_ATQA_ERR);
     aee:	64 e0       	ldi	r22, 0x04	; 4
     af0:	70 e0       	ldi	r23, 0x00	; 0
     af2:	80 e0       	ldi	r24, 0x00	; 0
     af4:	90 e0       	ldi	r25, 0x00	; 0
     af6:	04 c0       	rjmp	.+8      	; 0xb00 <READ_ATQA_CMD+0xb6>
	uint8_t tagResponse[2] = {};
	for (int i = 0; i < 2; i++) {
		tagResponse[i] = RFID_readReg(FIFO_DATA_REG);
	}
	ASSERT((tagResponse[0] != 0x04) | (tagResponse[1] != 0x00), CONTENT_ATQA_ERR);
     af8:	65 e0       	ldi	r22, 0x05	; 5
     afa:	70 e0       	ldi	r23, 0x00	; 0
     afc:	80 e0       	ldi	r24, 0x00	; 0
     afe:	90 e0       	ldi	r25, 0x00	; 0
	return SUCCESS;
}
     b00:	df 91       	pop	r29
     b02:	cf 91       	pop	r28
     b04:	08 95       	ret

00000b06 <READ_UID_BCC_CMD>:

uint32_t READ_UID_BCC_CMD(uint8_t* uid_data)
{
     b06:	6f 92       	push	r6
     b08:	7f 92       	push	r7
     b0a:	8f 92       	push	r8
     b0c:	9f 92       	push	r9
     b0e:	af 92       	push	r10
     b10:	bf 92       	push	r11
     b12:	cf 92       	push	r12
     b14:	df 92       	push	r13
     b16:	ef 92       	push	r14
     b18:	ff 92       	push	r15
     b1a:	0f 93       	push	r16
     b1c:	1f 93       	push	r17
     b1e:	cf 93       	push	r28
     b20:	df 93       	push	r29
     b22:	00 d0       	rcall	.+0      	; 0xb24 <READ_UID_BCC_CMD+0x1e>
     b24:	00 d0       	rcall	.+0      	; 0xb26 <READ_UID_BCC_CMD+0x20>
     b26:	1f 92       	push	r1
     b28:	cd b7       	in	r28, 0x3d	; 61
     b2a:	de b7       	in	r29, 0x3e	; 62
     b2c:	68 2e       	mov	r6, r24
     b2e:	79 2e       	mov	r7, r25
	ASSERT(READ_ATQA_CMD() != 0, TRANSFER_SPI_FAILED);
     b30:	0e 94 25 05 	call	0xa4a	; 0xa4a <READ_ATQA_CMD>
     b34:	6b 01       	movw	r12, r22
     b36:	7c 01       	movw	r14, r24
     b38:	67 2b       	or	r22, r23
     b3a:	68 2b       	or	r22, r24
     b3c:	69 2b       	or	r22, r25
     b3e:	09 f0       	breq	.+2      	; 0xb42 <READ_UID_BCC_CMD+0x3c>
     b40:	77 c0       	rjmp	.+238    	; 0xc30 <READ_UID_BCC_CMD+0x12a>
	LCD_Clear();
     b42:	0e 94 70 03 	call	0x6e0	; 0x6e0 <LCD_Clear>
}

uint32_t RFID_writeReg(uint8_t regAddr, uint8_t data)
{
	uint8_t formattedRegAddr = (regAddr << 1) & 0x7E;
	SPI_writeReg(formattedRegAddr,data);
     b46:	60 e0       	ldi	r22, 0x00	; 0
     b48:	8a e1       	ldi	r24, 0x1A	; 26
     b4a:	0e 94 65 04 	call	0x8ca	; 0x8ca <SPI_writeReg>
     b4e:	63 e9       	ldi	r22, 0x93	; 147
     b50:	82 e1       	ldi	r24, 0x12	; 18
     b52:	0e 94 65 04 	call	0x8ca	; 0x8ca <SPI_writeReg>
     b56:	60 e2       	ldi	r22, 0x20	; 32
     b58:	82 e1       	ldi	r24, 0x12	; 18
     b5a:	0e 94 65 04 	call	0x8ca	; 0x8ca <SPI_writeReg>
     b5e:	60 e8       	ldi	r22, 0x80	; 128
     b60:	8a e1       	ldi	r24, 0x1A	; 26
     b62:	0e 94 65 04 	call	0x8ca	; 0x8ca <SPI_writeReg>
     b66:	01 e5       	ldi	r16, 0x51	; 81
     b68:	13 ec       	ldi	r17, 0xC3	; 195
	RFID_writeReg(FIFO_DATA_REG,0x20);
	RFID_writeReg(BIT_FRAMING_REG,0x80);
	uint8_t irq = 0;
	uint16_t timeout = 50000;
	do {
		irq = RFID_readReg(ComIrqReg);
     b6a:	84 e0       	ldi	r24, 0x04	; 4
     b6c:	0e 94 ce 04 	call	0x99c	; 0x99c <RFID_readReg>
	} while ((!(irq & 0x20)) && (timeout--));
     b70:	65 fd       	sbrc	r22, 5
     b72:	03 c0       	rjmp	.+6      	; 0xb7a <READ_UID_BCC_CMD+0x74>
     b74:	01 50       	subi	r16, 0x01	; 1
     b76:	11 09       	sbc	r17, r1
     b78:	c1 f7       	brne	.-16     	; 0xb6a <READ_UID_BCC_CMD+0x64>

	
	uint8_t errorRegValue = RFID_readReg(ERROR_REG);
     b7a:	86 e0       	ldi	r24, 0x06	; 6
     b7c:	0e 94 ce 04 	call	0x99c	; 0x99c <RFID_readReg>
     b80:	16 2f       	mov	r17, r22
	uint8_t controlRegValue = RFID_readReg(CONTROL_REG);
     b82:	8c e0       	ldi	r24, 0x0C	; 12
     b84:	0e 94 ce 04 	call	0x99c	; 0x99c <RFID_readReg>
	if (errorRegValue & ERROR_REG_BITMASK) return RFID_MISC_ERR;
     b88:	13 71       	andi	r17, 0x13	; 19
     b8a:	09 f0       	breq	.+2      	; 0xb8e <READ_UID_BCC_CMD+0x88>
     b8c:	56 c0       	rjmp	.+172    	; 0xc3a <READ_UID_BCC_CMD+0x134>
	if (controlRegValue & CONTROL_REG_BITMASK) return RFID_INVALID_BYTE_ERR;
     b8e:	67 70       	andi	r22, 0x07	; 7
     b90:	09 f0       	breq	.+2      	; 0xb94 <READ_UID_BCC_CMD+0x8e>
     b92:	59 c0       	rjmp	.+178    	; 0xc46 <READ_UID_BCC_CMD+0x140>
     b94:	8f e9       	ldi	r24, 0x9F	; 159
     b96:	9f e0       	ldi	r25, 0x0F	; 15
     b98:	01 97       	sbiw	r24, 0x01	; 1
     b9a:	f1 f7       	brne	.-4      	; 0xb98 <READ_UID_BCC_CMD+0x92>
     b9c:	00 c0       	rjmp	.+0      	; 0xb9e <READ_UID_BCC_CMD+0x98>
     b9e:	00 00       	nop
	_delay_us(1000);
	
	uint8_t numFIFObytes = RFID_readReg(FIFO_LEVEL_REG);
     ba0:	8a e0       	ldi	r24, 0x0A	; 10
     ba2:	0e 94 ce 04 	call	0x99c	; 0x99c <RFID_readReg>
	
	ASSERT(numFIFObytes != 5, LENGTH_UID_BCC_ERR);
     ba6:	65 30       	cpi	r22, 0x05	; 5
     ba8:	09 f0       	breq	.+2      	; 0xbac <READ_UID_BCC_CMD+0xa6>
     baa:	55 c0       	rjmp	.+170    	; 0xc56 <READ_UID_BCC_CMD+0x150>
	uint8_t tagResponse[5] = {};
     bac:	fe 01       	movw	r30, r28
     bae:	31 96       	adiw	r30, 0x01	; 1
     bb0:	85 e0       	ldi	r24, 0x05	; 5
     bb2:	df 01       	movw	r26, r30
     bb4:	1d 92       	st	X+, r1
     bb6:	8a 95       	dec	r24
     bb8:	e9 f7       	brne	.-6      	; 0xbb4 <READ_UID_BCC_CMD+0xae>
     bba:	4f 01       	movw	r8, r30
     bbc:	5e 01       	movw	r10, r28
     bbe:	b6 e0       	ldi	r27, 0x06	; 6
     bc0:	ab 0e       	add	r10, r27
     bc2:	b1 1c       	adc	r11, r1
     bc4:	8f 01       	movw	r16, r30
	for (int i = 0; i < 5; i++) {
		tagResponse[i] = RFID_readReg(FIFO_DATA_REG);
     bc6:	89 e0       	ldi	r24, 0x09	; 9
     bc8:	0e 94 ce 04 	call	0x99c	; 0x99c <RFID_readReg>
     bcc:	f8 01       	movw	r30, r16
     bce:	61 93       	st	Z+, r22
     bd0:	8f 01       	movw	r16, r30
	
	uint8_t numFIFObytes = RFID_readReg(FIFO_LEVEL_REG);
	
	ASSERT(numFIFObytes != 5, LENGTH_UID_BCC_ERR);
	uint8_t tagResponse[5] = {};
	for (int i = 0; i < 5; i++) {
     bd2:	ea 15       	cp	r30, r10
     bd4:	fb 05       	cpc	r31, r11
     bd6:	b9 f7       	brne	.-18     	; 0xbc6 <READ_UID_BCC_CMD+0xc0>
		tagResponse[i] = RFID_readReg(FIFO_DATA_REG);
	}
	uint8_t uid_check = tagResponse[0];
     bd8:	99 81       	ldd	r25, Y+1	; 0x01
	for (int i = 1; i < 4; i++)
	{
		uid_check = uid_check^tagResponse[i];
     bda:	8a 81       	ldd	r24, Y+2	; 0x02
     bdc:	98 27       	eor	r25, r24
     bde:	8b 81       	ldd	r24, Y+3	; 0x03
     be0:	98 27       	eor	r25, r24
	}
	ASSERT(uid_check != tagResponse[4], CONTENT_UID_BCC_ERR);
     be2:	8c 81       	ldd	r24, Y+4	; 0x04
     be4:	89 27       	eor	r24, r25
     be6:	9d 81       	ldd	r25, Y+5	; 0x05
     be8:	89 13       	cpse	r24, r25
     bea:	3d c0       	rjmp	.+122    	; 0xc66 <READ_UID_BCC_CMD+0x160>
     bec:	06 2d       	mov	r16, r6
     bee:	17 2d       	mov	r17, r7
     bf0:	5e 01       	movw	r10, r28
     bf2:	f5 e0       	ldi	r31, 0x05	; 5
     bf4:	af 0e       	add	r10, r31
     bf6:	b1 1c       	adc	r11, r1

	for (int i = 0; i < 4; i++)
	{
		uid_data[i] = tagResponse[i];
     bf8:	d4 01       	movw	r26, r8
     bfa:	6d 91       	ld	r22, X+
     bfc:	4d 01       	movw	r8, r26
     bfe:	f8 01       	movw	r30, r16
     c00:	61 93       	st	Z+, r22
     c02:	8f 01       	movw	r16, r30
		LCD_I2C_write_number(uid_data[i],2,1);
     c04:	70 e0       	ldi	r23, 0x00	; 0
     c06:	80 e0       	ldi	r24, 0x00	; 0
     c08:	90 e0       	ldi	r25, 0x00	; 0
     c0a:	21 e0       	ldi	r18, 0x01	; 1
     c0c:	42 e0       	ldi	r20, 0x02	; 2
     c0e:	0e 94 af 03 	call	0x75e	; 0x75e <LCD_I2C_write_number>
	#else
		//round up by default
		__ticks_dc = (uint32_t)(ceil(fabs(__tmp)));
	#endif

	__builtin_avr_delay_cycles(__ticks_dc);
     c12:	ff ef       	ldi	r31, 0xFF	; 255
     c14:	24 e3       	ldi	r18, 0x34	; 52
     c16:	8c e0       	ldi	r24, 0x0C	; 12
     c18:	f1 50       	subi	r31, 0x01	; 1
     c1a:	20 40       	sbci	r18, 0x00	; 0
     c1c:	80 40       	sbci	r24, 0x00	; 0
     c1e:	e1 f7       	brne	.-8      	; 0xc18 <READ_UID_BCC_CMD+0x112>
     c20:	00 c0       	rjmp	.+0      	; 0xc22 <READ_UID_BCC_CMD+0x11c>
     c22:	00 00       	nop
		_delay_ms(250);
		LCD_Clear();
     c24:	0e 94 70 03 	call	0x6e0	; 0x6e0 <LCD_Clear>
	{
		uid_check = uid_check^tagResponse[i];
	}
	ASSERT(uid_check != tagResponse[4], CONTENT_UID_BCC_ERR);

	for (int i = 0; i < 4; i++)
     c28:	a8 14       	cp	r10, r8
     c2a:	b9 04       	cpc	r11, r9
     c2c:	29 f7       	brne	.-54     	; 0xbf8 <READ_UID_BCC_CMD+0xf2>
     c2e:	22 c0       	rjmp	.+68     	; 0xc74 <READ_UID_BCC_CMD+0x16e>
	return SUCCESS;
}

uint32_t READ_UID_BCC_CMD(uint8_t* uid_data)
{
	ASSERT(READ_ATQA_CMD() != 0, TRANSFER_SPI_FAILED);
     c30:	c1 2c       	mov	r12, r1
     c32:	d1 2c       	mov	r13, r1
     c34:	76 01       	movw	r14, r12
     c36:	c3 94       	inc	r12
     c38:	1d c0       	rjmp	.+58     	; 0xc74 <READ_UID_BCC_CMD+0x16e>
	} while ((!(irq & 0x20)) && (timeout--));

	
	uint8_t errorRegValue = RFID_readReg(ERROR_REG);
	uint8_t controlRegValue = RFID_readReg(CONTROL_REG);
	if (errorRegValue & ERROR_REG_BITMASK) return RFID_MISC_ERR;
     c3a:	c1 2c       	mov	r12, r1
     c3c:	d1 2c       	mov	r13, r1
     c3e:	76 01       	movw	r14, r12
     c40:	68 94       	set
     c42:	c1 f8       	bld	r12, 1
     c44:	17 c0       	rjmp	.+46     	; 0xc74 <READ_UID_BCC_CMD+0x16e>
	if (controlRegValue & CONTROL_REG_BITMASK) return RFID_INVALID_BYTE_ERR;
     c46:	0f 2e       	mov	r0, r31
     c48:	f3 e0       	ldi	r31, 0x03	; 3
     c4a:	cf 2e       	mov	r12, r31
     c4c:	d1 2c       	mov	r13, r1
     c4e:	e1 2c       	mov	r14, r1
     c50:	f1 2c       	mov	r15, r1
     c52:	f0 2d       	mov	r31, r0
     c54:	0f c0       	rjmp	.+30     	; 0xc74 <READ_UID_BCC_CMD+0x16e>
	_delay_us(1000);
	
	uint8_t numFIFObytes = RFID_readReg(FIFO_LEVEL_REG);
	
	ASSERT(numFIFObytes != 5, LENGTH_UID_BCC_ERR);
     c56:	0f 2e       	mov	r0, r31
     c58:	f6 e0       	ldi	r31, 0x06	; 6
     c5a:	cf 2e       	mov	r12, r31
     c5c:	d1 2c       	mov	r13, r1
     c5e:	e1 2c       	mov	r14, r1
     c60:	f1 2c       	mov	r15, r1
     c62:	f0 2d       	mov	r31, r0
     c64:	07 c0       	rjmp	.+14     	; 0xc74 <READ_UID_BCC_CMD+0x16e>
	uint8_t uid_check = tagResponse[0];
	for (int i = 1; i < 4; i++)
	{
		uid_check = uid_check^tagResponse[i];
	}
	ASSERT(uid_check != tagResponse[4], CONTENT_UID_BCC_ERR);
     c66:	0f 2e       	mov	r0, r31
     c68:	f7 e0       	ldi	r31, 0x07	; 7
     c6a:	cf 2e       	mov	r12, r31
     c6c:	d1 2c       	mov	r13, r1
     c6e:	e1 2c       	mov	r14, r1
     c70:	f1 2c       	mov	r15, r1
     c72:	f0 2d       	mov	r31, r0
		_delay_ms(250);
		LCD_Clear();
	}

	return SUCCESS;
}
     c74:	c7 01       	movw	r24, r14
     c76:	b6 01       	movw	r22, r12
     c78:	0f 90       	pop	r0
     c7a:	0f 90       	pop	r0
     c7c:	0f 90       	pop	r0
     c7e:	0f 90       	pop	r0
     c80:	0f 90       	pop	r0
     c82:	df 91       	pop	r29
     c84:	cf 91       	pop	r28
     c86:	1f 91       	pop	r17
     c88:	0f 91       	pop	r16
     c8a:	ff 90       	pop	r15
     c8c:	ef 90       	pop	r14
     c8e:	df 90       	pop	r13
     c90:	cf 90       	pop	r12
     c92:	bf 90       	pop	r11
     c94:	af 90       	pop	r10
     c96:	9f 90       	pop	r9
     c98:	8f 90       	pop	r8
     c9a:	7f 90       	pop	r7
     c9c:	6f 90       	pop	r6
     c9e:	08 95       	ret

00000ca0 <pwm_init>:
	if (angle < 0) angle = 0;
	if (angle > 180) angle = 180;

	float pulse_ms = 1.0 + (angle / 180.0) * 1.0;  // 1 -> 2 ms
	pwm_set_duty_ms(pulse_ms);
}
     ca0:	21 9a       	sbi	0x04, 1	; 4
     ca2:	82 e8       	ldi	r24, 0x82	; 130
     ca4:	80 93 80 00 	sts	0x0080, r24	; 0x800080 <__DATA_REGION_ORIGIN__+0x20>
     ca8:	8a e1       	ldi	r24, 0x1A	; 26
     caa:	80 93 81 00 	sts	0x0081, r24	; 0x800081 <__DATA_REGION_ORIGIN__+0x21>
     cae:	8f e3       	ldi	r24, 0x3F	; 63
     cb0:	9c e9       	ldi	r25, 0x9C	; 156
     cb2:	90 93 87 00 	sts	0x0087, r25	; 0x800087 <__DATA_REGION_ORIGIN__+0x27>
     cb6:	80 93 86 00 	sts	0x0086, r24	; 0x800086 <__DATA_REGION_ORIGIN__+0x26>
     cba:	08 95       	ret

00000cbc <lcd_task>:

	
	
void lcd_task()
{
     cbc:	0f 93       	push	r16
     cbe:	1f 93       	push	r17
     cc0:	cf 93       	push	r28
     cc2:	df 93       	push	r29
     cc4:	1f 92       	push	r1
     cc6:	cd b7       	in	r28, 0x3d	; 61
     cc8:	de b7       	in	r29, 0x3e	; 62
	switch (lcd_state)
     cca:	e0 91 c2 01 	lds	r30, 0x01C2	; 0x8001c2 <lcd_state>
     cce:	8e 2f       	mov	r24, r30
     cd0:	90 e0       	ldi	r25, 0x00	; 0
     cd2:	fc 01       	movw	r30, r24
     cd4:	31 97       	sbiw	r30, 0x01	; 1
     cd6:	e7 30       	cpi	r30, 0x07	; 7
     cd8:	f1 05       	cpc	r31, r1
     cda:	08 f0       	brcs	.+2      	; 0xcde <lcd_task+0x22>
     cdc:	dc c0       	rjmp	.+440    	; 0xe96 <lcd_task+0x1da>
     cde:	ec 5c       	subi	r30, 0xCC	; 204
     ce0:	ff 4f       	sbci	r31, 0xFF	; 255
     ce2:	0c 94 97 09 	jmp	0x132e	; 0x132e <__tablejump2__>
	{
		case LCD_IDLE:
		break;

		case LCD_NEW_CARD_CONFIRM:
		LCD_I2C_write_string("CARD DETECTED",1,1);
     ce6:	41 e0       	ldi	r20, 0x01	; 1
     ce8:	61 e0       	ldi	r22, 0x01	; 1
     cea:	87 e6       	ldi	r24, 0x67	; 103
     cec:	91 e0       	ldi	r25, 0x01	; 1
     cee:	0e 94 7d 03 	call	0x6fa	; 0x6fa <LCD_I2C_write_string>
		break;
     cf2:	d1 c0       	rjmp	.+418    	; 0xe96 <lcd_task+0x1da>
		
		case LCD_CARD_INDENTITY_EXIST:
		LCD_I2C_write_string("CARD EXIST",1,1);
     cf4:	41 e0       	ldi	r20, 0x01	; 1
     cf6:	61 e0       	ldi	r22, 0x01	; 1
     cf8:	85 e7       	ldi	r24, 0x75	; 117
     cfa:	91 e0       	ldi	r25, 0x01	; 1
     cfc:	0e 94 7d 03 	call	0x6fa	; 0x6fa <LCD_I2C_write_string>
		break;
     d00:	ca c0       	rjmp	.+404    	; 0xe96 <lcd_task+0x1da>
		
		case LCD_UNINDENTIFIED_CARD:
		LCD_I2C_write_string("UNIDENTIFIED",1,1);
     d02:	41 e0       	ldi	r20, 0x01	; 1
     d04:	61 e0       	ldi	r22, 0x01	; 1
     d06:	80 e8       	ldi	r24, 0x80	; 128
     d08:	91 e0       	ldi	r25, 0x01	; 1
     d0a:	0e 94 7d 03 	call	0x6fa	; 0x6fa <LCD_I2C_write_string>
		break;
     d0e:	c3 c0       	rjmp	.+390    	; 0xe96 <lcd_task+0x1da>
		
		case LCD_SHOW_CONFIRM:
//		LCD_I2C_write_string("Confirm UID...", 1, 1);
		lcd_timer = systick_ms();
     d10:	0e 94 17 09 	call	0x122e	; 0x122e <systick_ms>
     d14:	60 93 be 01 	sts	0x01BE, r22	; 0x8001be <lcd_timer>
     d18:	70 93 bf 01 	sts	0x01BF, r23	; 0x8001bf <lcd_timer+0x1>
     d1c:	80 93 c0 01 	sts	0x01C0, r24	; 0x8001c0 <lcd_timer+0x2>
     d20:	90 93 c1 01 	sts	0x01C1, r25	; 0x8001c1 <lcd_timer+0x3>
		lcd_state = LCD_CLEAR;
     d24:	85 e0       	ldi	r24, 0x05	; 5
     d26:	80 93 c2 01 	sts	0x01C2, r24	; 0x8001c2 <lcd_state>
		break;
     d2a:	b5 c0       	rjmp	.+362    	; 0xe96 <lcd_task+0x1da>
		
		case LCD_CLEAR:
		if (systick_ms() - lcd_timer >= 500)
     d2c:	0e 94 17 09 	call	0x122e	; 0x122e <systick_ms>
     d30:	00 91 be 01 	lds	r16, 0x01BE	; 0x8001be <lcd_timer>
     d34:	10 91 bf 01 	lds	r17, 0x01BF	; 0x8001bf <lcd_timer+0x1>
     d38:	20 91 c0 01 	lds	r18, 0x01C0	; 0x8001c0 <lcd_timer+0x2>
     d3c:	30 91 c1 01 	lds	r19, 0x01C1	; 0x8001c1 <lcd_timer+0x3>
     d40:	dc 01       	movw	r26, r24
     d42:	cb 01       	movw	r24, r22
     d44:	80 1b       	sub	r24, r16
     d46:	91 0b       	sbc	r25, r17
     d48:	a2 0b       	sbc	r26, r18
     d4a:	b3 0b       	sbc	r27, r19
     d4c:	84 3f       	cpi	r24, 0xF4	; 244
     d4e:	91 40       	sbci	r25, 0x01	; 1
     d50:	a1 05       	cpc	r26, r1
     d52:	b1 05       	cpc	r27, r1
     d54:	08 f4       	brcc	.+2      	; 0xd58 <lcd_task+0x9c>
     d56:	9f c0       	rjmp	.+318    	; 0xe96 <lcd_task+0x1da>
		{
			lcd_timer = systick_ms();
     d58:	0e 94 17 09 	call	0x122e	; 0x122e <systick_ms>
     d5c:	60 93 be 01 	sts	0x01BE, r22	; 0x8001be <lcd_timer>
     d60:	70 93 bf 01 	sts	0x01BF, r23	; 0x8001bf <lcd_timer+0x1>
     d64:	80 93 c0 01 	sts	0x01C0, r24	; 0x8001c0 <lcd_timer+0x2>
     d68:	90 93 c1 01 	sts	0x01C1, r25	; 0x8001c1 <lcd_timer+0x3>
			LCD_Clear();
     d6c:	0e 94 70 03 	call	0x6e0	; 0x6e0 <LCD_Clear>
			if(taken_spot > Parked)
     d70:	80 91 ba 01 	lds	r24, 0x01BA	; 0x8001ba <taken_spot>
     d74:	90 91 bb 01 	lds	r25, 0x01BB	; 0x8001bb <taken_spot+0x1>
     d78:	a0 91 bc 01 	lds	r26, 0x01BC	; 0x8001bc <taken_spot+0x2>
     d7c:	b0 91 bd 01 	lds	r27, 0x01BD	; 0x8001bd <taken_spot+0x3>
     d80:	03 97       	sbiw	r24, 0x03	; 3
     d82:	a1 05       	cpc	r26, r1
     d84:	b1 05       	cpc	r27, r1
     d86:	20 f0       	brcs	.+8      	; 0xd90 <lcd_task+0xd4>
			{
				lcd_state = LCD_FULL;
     d88:	87 e0       	ldi	r24, 0x07	; 7
     d8a:	80 93 c2 01 	sts	0x01C2, r24	; 0x8001c2 <lcd_state>
     d8e:	83 c0       	rjmp	.+262    	; 0xe96 <lcd_task+0x1da>
			}
			else
			{
				lcd_state = LCD_PARK_AVAI;
     d90:	86 e0       	ldi	r24, 0x06	; 6
     d92:	80 93 c2 01 	sts	0x01C2, r24	; 0x8001c2 <lcd_state>
     d96:	7f c0       	rjmp	.+254    	; 0xe96 <lcd_task+0x1da>
			}
		}
		break;
		
		case LCD_PARK_AVAI:
		if (systick_ms() - lcd_timer >= 2)
     d98:	0e 94 17 09 	call	0x122e	; 0x122e <systick_ms>
     d9c:	00 91 be 01 	lds	r16, 0x01BE	; 0x8001be <lcd_timer>
     da0:	10 91 bf 01 	lds	r17, 0x01BF	; 0x8001bf <lcd_timer+0x1>
     da4:	20 91 c0 01 	lds	r18, 0x01C0	; 0x8001c0 <lcd_timer+0x2>
     da8:	30 91 c1 01 	lds	r19, 0x01C1	; 0x8001c1 <lcd_timer+0x3>
     dac:	dc 01       	movw	r26, r24
     dae:	cb 01       	movw	r24, r22
     db0:	80 1b       	sub	r24, r16
     db2:	91 0b       	sbc	r25, r17
     db4:	a2 0b       	sbc	r26, r18
     db6:	b3 0b       	sbc	r27, r19
     db8:	02 97       	sbiw	r24, 0x02	; 2
     dba:	a1 05       	cpc	r26, r1
     dbc:	b1 05       	cpc	r27, r1
     dbe:	08 f4       	brcc	.+2      	; 0xdc2 <lcd_task+0x106>
     dc0:	6a c0       	rjmp	.+212    	; 0xe96 <lcd_task+0x1da>
		{
			lcd_timer = systick_ms();
     dc2:	0e 94 17 09 	call	0x122e	; 0x122e <systick_ms>
     dc6:	60 93 be 01 	sts	0x01BE, r22	; 0x8001be <lcd_timer>
     dca:	70 93 bf 01 	sts	0x01BF, r23	; 0x8001bf <lcd_timer+0x1>
     dce:	80 93 c0 01 	sts	0x01C0, r24	; 0x8001c0 <lcd_timer+0x2>
     dd2:	90 93 c1 01 	sts	0x01C1, r25	; 0x8001c1 <lcd_timer+0x3>
			LCD_I2C_write_string("Remaining park",1,1);
     dd6:	41 e0       	ldi	r20, 0x01	; 1
     dd8:	61 e0       	ldi	r22, 0x01	; 1
     dda:	8d e8       	ldi	r24, 0x8D	; 141
     ddc:	91 e0       	ldi	r25, 0x01	; 1
     dde:	0e 94 7d 03 	call	0x6fa	; 0x6fa <LCD_I2C_write_string>
			LCD_I2C_write_number(Parked - taken_spot,2,1);
     de2:	00 91 ba 01 	lds	r16, 0x01BA	; 0x8001ba <taken_spot>
     de6:	10 91 bb 01 	lds	r17, 0x01BB	; 0x8001bb <taken_spot+0x1>
     dea:	20 91 bc 01 	lds	r18, 0x01BC	; 0x8001bc <taken_spot+0x2>
     dee:	30 91 bd 01 	lds	r19, 0x01BD	; 0x8001bd <taken_spot+0x3>
     df2:	82 e0       	ldi	r24, 0x02	; 2
     df4:	90 e0       	ldi	r25, 0x00	; 0
     df6:	a0 e0       	ldi	r26, 0x00	; 0
     df8:	b0 e0       	ldi	r27, 0x00	; 0
     dfa:	bc 01       	movw	r22, r24
     dfc:	cd 01       	movw	r24, r26
     dfe:	60 1b       	sub	r22, r16
     e00:	71 0b       	sbc	r23, r17
     e02:	82 0b       	sbc	r24, r18
     e04:	93 0b       	sbc	r25, r19
     e06:	21 e0       	ldi	r18, 0x01	; 1
     e08:	42 e0       	ldi	r20, 0x02	; 2
     e0a:	0e 94 af 03 	call	0x75e	; 0x75e <LCD_I2C_write_number>
			lcd_state = LCD_IDLE;
     e0e:	10 92 c2 01 	sts	0x01C2, r1	; 0x8001c2 <lcd_state>
     e12:	41 c0       	rjmp	.+130    	; 0xe96 <lcd_task+0x1da>
		}
		break;
		
		case LCD_FULL:
		if (systick_ms() - lcd_timer >= 2)
     e14:	0e 94 17 09 	call	0x122e	; 0x122e <systick_ms>
     e18:	00 91 be 01 	lds	r16, 0x01BE	; 0x8001be <lcd_timer>
     e1c:	10 91 bf 01 	lds	r17, 0x01BF	; 0x8001bf <lcd_timer+0x1>
     e20:	20 91 c0 01 	lds	r18, 0x01C0	; 0x8001c0 <lcd_timer+0x2>
     e24:	30 91 c1 01 	lds	r19, 0x01C1	; 0x8001c1 <lcd_timer+0x3>
     e28:	dc 01       	movw	r26, r24
     e2a:	cb 01       	movw	r24, r22
     e2c:	80 1b       	sub	r24, r16
     e2e:	91 0b       	sbc	r25, r17
     e30:	a2 0b       	sbc	r26, r18
     e32:	b3 0b       	sbc	r27, r19
     e34:	02 97       	sbiw	r24, 0x02	; 2
     e36:	a1 05       	cpc	r26, r1
     e38:	b1 05       	cpc	r27, r1
     e3a:	68 f1       	brcs	.+90     	; 0xe96 <lcd_task+0x1da>
		{
			lcd_timer = systick_ms();
     e3c:	0e 94 17 09 	call	0x122e	; 0x122e <systick_ms>
     e40:	60 93 be 01 	sts	0x01BE, r22	; 0x8001be <lcd_timer>
     e44:	70 93 bf 01 	sts	0x01BF, r23	; 0x8001bf <lcd_timer+0x1>
     e48:	80 93 c0 01 	sts	0x01C0, r24	; 0x8001c0 <lcd_timer+0x2>
     e4c:	90 93 c1 01 	sts	0x01C1, r25	; 0x8001c1 <lcd_timer+0x3>
			LCD_I2C_write_string("No space left",1,1);
     e50:	41 e0       	ldi	r20, 0x01	; 1
     e52:	61 e0       	ldi	r22, 0x01	; 1
     e54:	8c e9       	ldi	r24, 0x9C	; 156
     e56:	91 e0       	ldi	r25, 0x01	; 1
     e58:	0e 94 7d 03 	call	0x6fa	; 0x6fa <LCD_I2C_write_string>
			taken_spot--;
     e5c:	80 91 ba 01 	lds	r24, 0x01BA	; 0x8001ba <taken_spot>
     e60:	90 91 bb 01 	lds	r25, 0x01BB	; 0x8001bb <taken_spot+0x1>
     e64:	a0 91 bc 01 	lds	r26, 0x01BC	; 0x8001bc <taken_spot+0x2>
     e68:	b0 91 bd 01 	lds	r27, 0x01BD	; 0x8001bd <taken_spot+0x3>
     e6c:	01 97       	sbiw	r24, 0x01	; 1
     e6e:	a1 09       	sbc	r26, r1
     e70:	b1 09       	sbc	r27, r1
     e72:	80 93 ba 01 	sts	0x01BA, r24	; 0x8001ba <taken_spot>
     e76:	90 93 bb 01 	sts	0x01BB, r25	; 0x8001bb <taken_spot+0x1>
     e7a:	a0 93 bc 01 	sts	0x01BC, r26	; 0x8001bc <taken_spot+0x2>
     e7e:	b0 93 bd 01 	sts	0x01BD, r27	; 0x8001bd <taken_spot+0x3>
			uint8_t dummy_state = 0;
     e82:	19 82       	std	Y+1, r1	; 0x01
			read_eeprom(data,&dummy_state);
     e84:	be 01       	movw	r22, r28
     e86:	6f 5f       	subi	r22, 0xFF	; 255
     e88:	7f 4f       	sbci	r23, 0xFF	; 255
     e8a:	84 eb       	ldi	r24, 0xB4	; 180
     e8c:	91 e0       	ldi	r25, 0x01	; 1
     e8e:	0e 94 26 01 	call	0x24c	; 0x24c <read_eeprom>
			lcd_state = LCD_IDLE;
     e92:	10 92 c2 01 	sts	0x01C2, r1	; 0x8001c2 <lcd_state>
		break;
		
		default:
		break;
	}
}
     e96:	0f 90       	pop	r0
     e98:	df 91       	pop	r29
     e9a:	cf 91       	pop	r28
     e9c:	1f 91       	pop	r17
     e9e:	0f 91       	pop	r16
     ea0:	08 95       	ret

00000ea2 <servo_in_task>:


void servo_in_task()
{
	switch (servo_in_state)
     ea2:	80 91 b9 01 	lds	r24, 0x01B9	; 0x8001b9 <servo_in_state>
     ea6:	82 30       	cpi	r24, 0x02	; 2
     ea8:	31 f1       	breq	.+76     	; 0xef6 <servo_in_task+0x54>
     eaa:	85 30       	cpi	r24, 0x05	; 5
     eac:	c1 f0       	breq	.+48     	; 0xede <servo_in_task+0x3c>
     eae:	81 30       	cpi	r24, 0x01	; 1
     eb0:	81 f5       	brne	.+96     	; 0xf12 <servo_in_task+0x70>
	{
		case SERVO_IDLE:
		break;

		case SERVO_IN_ON:
		digital_write(&CHOOSE_SERVO_PORT,CHOOSE_SERVO,1);
     eb2:	41 e0       	ldi	r20, 0x01	; 1
     eb4:	63 e0       	ldi	r22, 0x03	; 3
     eb6:	88 e2       	ldi	r24, 0x28	; 40
     eb8:	90 e0       	ldi	r25, 0x00	; 0
     eba:	0e 94 cd 08 	call	0x119a	; 0x119a <digital_write>
	ICR1 = 39999;
}

void pwm_set_duty_ms(float pulse_ms)
{
	OCR1A = (uint16_t)(pulse_ms * 2000.0);
     ebe:	80 e3       	ldi	r24, 0x30	; 48
     ec0:	91 e1       	ldi	r25, 0x11	; 17
     ec2:	90 93 89 00 	sts	0x0089, r25	; 0x800089 <__DATA_REGION_ORIGIN__+0x29>
     ec6:	80 93 88 00 	sts	0x0088, r24	; 0x800088 <__DATA_REGION_ORIGIN__+0x28>
		break;

		case SERVO_IN_ON:
		digital_write(&CHOOSE_SERVO_PORT,CHOOSE_SERVO,1);
		pwm_set_duty_ms(2.2);
		digital_write(&PORTC,LED_TEST1,1);
     eca:	41 e0       	ldi	r20, 0x01	; 1
     ecc:	64 e0       	ldi	r22, 0x04	; 4
     ece:	88 e2       	ldi	r24, 0x28	; 40
     ed0:	90 e0       	ldi	r25, 0x00	; 0
     ed2:	0e 94 cd 08 	call	0x119a	; 0x119a <digital_write>
		servo_in_state = SERVO_CONFIRM;
     ed6:	85 e0       	ldi	r24, 0x05	; 5
     ed8:	80 93 b9 01 	sts	0x01B9, r24	; 0x8001b9 <servo_in_state>
		break;
     edc:	08 95       	ret
		
		case SERVO_CONFIRM:
		if(digital_read(PIND,IN_SENSOR_1) == 0)   //xai cam bien chuyen ve 1
     ede:	89 b1       	in	r24, 0x09	; 9
     ee0:	67 e0       	ldi	r22, 0x07	; 7
     ee2:	0e 94 ed 08 	call	0x11da	; 0x11da <digital_read>
     ee6:	67 2b       	or	r22, r23
     ee8:	68 2b       	or	r22, r24
     eea:	69 2b       	or	r22, r25
     eec:	91 f4       	brne	.+36     	; 0xf12 <servo_in_task+0x70>
		{
			servo_in_state = SERVO_IN_OFF;
     eee:	82 e0       	ldi	r24, 0x02	; 2
     ef0:	80 93 b9 01 	sts	0x01B9, r24	; 0x8001b9 <servo_in_state>
     ef4:	08 95       	ret
		}
		break;

		case SERVO_IN_OFF:
		digital_write(&CHOOSE_SERVO_PORT,CHOOSE_SERVO,1);
     ef6:	41 e0       	ldi	r20, 0x01	; 1
     ef8:	63 e0       	ldi	r22, 0x03	; 3
     efa:	88 e2       	ldi	r24, 0x28	; 40
     efc:	90 e0       	ldi	r25, 0x00	; 0
     efe:	0e 94 cd 08 	call	0x119a	; 0x119a <digital_write>
	ICR1 = 39999;
}

void pwm_set_duty_ms(float pulse_ms)
{
	OCR1A = (uint16_t)(pulse_ms * 2000.0);
     f02:	80 ed       	ldi	r24, 0xD0	; 208
     f04:	97 e0       	ldi	r25, 0x07	; 7
     f06:	90 93 89 00 	sts	0x0089, r25	; 0x800089 <__DATA_REGION_ORIGIN__+0x29>
     f0a:	80 93 88 00 	sts	0x0088, r24	; 0x800088 <__DATA_REGION_ORIGIN__+0x28>
		break;

		case SERVO_IN_OFF:
		digital_write(&CHOOSE_SERVO_PORT,CHOOSE_SERVO,1);
		pwm_set_duty_ms(1);
		servo_in_state = SERVO_IDLE;
     f0e:	10 92 b9 01 	sts	0x01B9, r1	; 0x8001b9 <servo_in_state>
     f12:	08 95       	ret

00000f14 <servo_out_task>:
	}
}

void servo_out_task()
{
	switch (servo_out_state)
     f14:	80 91 b8 01 	lds	r24, 0x01B8	; 0x8001b8 <servo_out_state>
     f18:	84 30       	cpi	r24, 0x04	; 4
     f1a:	01 f1       	breq	.+64     	; 0xf5c <servo_out_task+0x48>
     f1c:	85 30       	cpi	r24, 0x05	; 5
     f1e:	91 f0       	breq	.+36     	; 0xf44 <servo_out_task+0x30>
     f20:	83 30       	cpi	r24, 0x03	; 3
     f22:	51 f5       	brne	.+84     	; 0xf78 <servo_out_task+0x64>
	{
		case SERVO_IDLE:
		break;
		
		case SERVO_OUT_ON:
		digital_write(&CHOOSE_SERVO_PORT,CHOOSE_SERVO,0);
     f24:	40 e0       	ldi	r20, 0x00	; 0
     f26:	63 e0       	ldi	r22, 0x03	; 3
     f28:	88 e2       	ldi	r24, 0x28	; 40
     f2a:	90 e0       	ldi	r25, 0x00	; 0
     f2c:	0e 94 cd 08 	call	0x119a	; 0x119a <digital_write>
	ICR1 = 39999;
}

void pwm_set_duty_ms(float pulse_ms)
{
	OCR1A = (uint16_t)(pulse_ms * 2000.0);
     f30:	80 ea       	ldi	r24, 0xA0	; 160
     f32:	9f e0       	ldi	r25, 0x0F	; 15
     f34:	90 93 89 00 	sts	0x0089, r25	; 0x800089 <__DATA_REGION_ORIGIN__+0x29>
     f38:	80 93 88 00 	sts	0x0088, r24	; 0x800088 <__DATA_REGION_ORIGIN__+0x28>
		break;
		
		case SERVO_OUT_ON:
		digital_write(&CHOOSE_SERVO_PORT,CHOOSE_SERVO,0);
		pwm_set_duty_ms(2);
		servo_out_state = SERVO_CONFIRM;
     f3c:	85 e0       	ldi	r24, 0x05	; 5
     f3e:	80 93 b8 01 	sts	0x01B8, r24	; 0x8001b8 <servo_out_state>
		break;
     f42:	08 95       	ret
		
		case SERVO_CONFIRM:
		if(digital_read(PIND,IN_SENSOR_2) == 0)   //xai cam bien chuyen ve 1
     f44:	89 b1       	in	r24, 0x09	; 9
     f46:	66 e0       	ldi	r22, 0x06	; 6
     f48:	0e 94 ed 08 	call	0x11da	; 0x11da <digital_read>
     f4c:	67 2b       	or	r22, r23
     f4e:	68 2b       	or	r22, r24
     f50:	69 2b       	or	r22, r25
     f52:	91 f4       	brne	.+36     	; 0xf78 <servo_out_task+0x64>
		{
			servo_out_state = SERVO_OUT_OFF;
     f54:	84 e0       	ldi	r24, 0x04	; 4
     f56:	80 93 b8 01 	sts	0x01B8, r24	; 0x8001b8 <servo_out_state>
     f5a:	08 95       	ret
		}
		break;

		case SERVO_OUT_OFF:
		digital_write(&CHOOSE_SERVO_PORT,CHOOSE_SERVO,0);
     f5c:	40 e0       	ldi	r20, 0x00	; 0
     f5e:	63 e0       	ldi	r22, 0x03	; 3
     f60:	88 e2       	ldi	r24, 0x28	; 40
     f62:	90 e0       	ldi	r25, 0x00	; 0
     f64:	0e 94 cd 08 	call	0x119a	; 0x119a <digital_write>
	ICR1 = 39999;
}

void pwm_set_duty_ms(float pulse_ms)
{
	OCR1A = (uint16_t)(pulse_ms * 2000.0);
     f68:	80 ed       	ldi	r24, 0xD0	; 208
     f6a:	97 e0       	ldi	r25, 0x07	; 7
     f6c:	90 93 89 00 	sts	0x0089, r25	; 0x800089 <__DATA_REGION_ORIGIN__+0x29>
     f70:	80 93 88 00 	sts	0x0088, r24	; 0x800088 <__DATA_REGION_ORIGIN__+0x28>
		break;

		case SERVO_OUT_OFF:
		digital_write(&CHOOSE_SERVO_PORT,CHOOSE_SERVO,0);
		pwm_set_duty_ms(1);
		servo_out_state = SERVO_IDLE;
     f74:	10 92 b8 01 	sts	0x01B8, r1	; 0x8001b8 <servo_out_state>
     f78:	08 95       	ret

00000f7a <main>:
		break;
	}
}

int main(void)
{
     f7a:	cf 93       	push	r28
     f7c:	df 93       	push	r29
     f7e:	1f 92       	push	r1
     f80:	cd b7       	in	r28, 0x3d	; 61
     f82:	de b7       	in	r29, 0x3e	; 62
	//------------------------------------------
	//initialize
	LCD_I2C_init();
     f84:	0e 94 19 03 	call	0x632	; 0x632 <LCD_I2C_init>
	LCD_I2C_set();
     f88:	0e 94 5a 03 	call	0x6b4	; 0x6b4 <LCD_I2C_set>
	SPI_master_init();
     f8c:	0e 94 57 04 	call	0x8ae	; 0x8ae <SPI_master_init>
	RFID_hard_reset();
     f90:	0e 94 d6 04 	call	0x9ac	; 0x9ac <RFID_hard_reset>
	rfid_init();
     f94:	0e 94 e9 04 	call	0x9d2	; 0x9d2 <rfid_init>
	init_systick_us();
     f98:	0e 94 20 09 	call	0x1240	; 0x1240 <init_systick_us>
	init_systick_ms();
     f9c:	0e 94 06 09 	call	0x120c	; 0x120c <init_systick_ms>
	eeprom_address = eeprom_read_byte((uint8_t*)0x00);
     fa0:	80 e0       	ldi	r24, 0x00	; 0
     fa2:	90 e0       	ldi	r25, 0x00	; 0
     fa4:	0e 94 80 0c 	call	0x1900	; 0x1900 <eeprom_read_byte>
     fa8:	90 e0       	ldi	r25, 0x00	; 0
     faa:	90 93 01 01 	sts	0x0101, r25	; 0x800101 <__data_start+0x1>
     fae:	80 93 00 01 	sts	0x0100, r24	; 0x800100 <__data_start>
	if (eeprom_address == 0xFF) eeprom_address = 0x01;
     fb2:	8f 3f       	cpi	r24, 0xFF	; 255
     fb4:	91 05       	cpc	r25, r1
     fb6:	31 f4       	brne	.+12     	; 0xfc4 <main+0x4a>
     fb8:	81 e0       	ldi	r24, 0x01	; 1
     fba:	90 e0       	ldi	r25, 0x00	; 0
     fbc:	90 93 01 01 	sts	0x0101, r25	; 0x800101 <__data_start+0x1>
     fc0:	80 93 00 01 	sts	0x0100, r24	; 0x800100 <__data_start>

	CHOOSE_SERVO_DR = CHOOSE_SERVO_DR | (1 << CHOOSE_SERVO);
     fc4:	3b 9a       	sbi	0x07, 3	; 7
	DDRD = DDRD & (~(1 << READ_STATE));
     fc6:	52 98       	cbi	0x0a, 2	; 10
	DDRD = DDRD & (~(1 << IN_SENSOR_1)) & (~(1 << IN_SENSOR_2));
     fc8:	8a b1       	in	r24, 0x0a	; 10
     fca:	8f 73       	andi	r24, 0x3F	; 63
     fcc:	8a b9       	out	0x0a, r24	; 10
	
	
	DDRC |= (1 << BUZZER);
     fce:	3a 9a       	sbi	0x07, 2	; 7
	
	
	
	
	//------------------------------------------
	uint32_t rfid_time = systick_ms();
     fd0:	0e 94 17 09 	call	0x122e	; 0x122e <systick_ms>
     fd4:	2b 01       	movw	r4, r22
     fd6:	3c 01       	movw	r6, r24
	uint32_t write_eeproom_time = systick_ms();
     fd8:	0e 94 17 09 	call	0x122e	; 0x122e <systick_ms>
     fdc:	4b 01       	movw	r8, r22
     fde:	5c 01       	movw	r10, r24
	uint32_t buzzer_time = systick_ms();
     fe0:	0e 94 17 09 	call	0x122e	; 0x122e <systick_ms>
     fe4:	6b 01       	movw	r12, r22
     fe6:	7c 01       	movw	r14, r24
	uint32_t count_tag = 0;
	uint8_t check_state = 0;
     fe8:	19 82       	std	Y+1, r1	; 0x01
	pwm_init();
     fea:	0e 94 50 06 	call	0xca0	; 0xca0 <pwm_init>
	clear_all_eeprom();
     fee:	0e 94 e8 01 	call	0x3d0	; 0x3d0 <clear_all_eeprom>
							servo_in_state = SERVO_IN_ON;
						}
					}
					else if(check_state == 1)
					{
						servo_out_state = SERVO_OUT_ON;
     ff2:	13 e0       	ldi	r17, 0x03	; 3
						lcd_state = LCD_NEW_CARD_CONFIRM;
						count_tag++;
					}
					else if(check_exist == DATA_EXIST)
					{
						lcd_state = LCD_CARD_INDENTITY_EXIST;
     ff4:	04 e0       	ldi	r16, 0x04	; 4
	uint8_t check_state = 0;
	pwm_init();
	clear_all_eeprom();
	while (1)
	{
		lcd_task();
     ff6:	0e 94 5e 06 	call	0xcbc	; 0xcbc <lcd_task>
		servo_in_task();
     ffa:	0e 94 51 07 	call	0xea2	; 0xea2 <servo_in_task>
		servo_out_task();
     ffe:	0e 94 8a 07 	call	0xf14	; 0xf14 <servo_out_task>
		if (systick_ms() - buzzer_time > 200)
    1002:	0e 94 17 09 	call	0x122e	; 0x122e <systick_ms>
    1006:	dc 01       	movw	r26, r24
    1008:	cb 01       	movw	r24, r22
    100a:	8c 19       	sub	r24, r12
    100c:	9d 09       	sbc	r25, r13
    100e:	ae 09       	sbc	r26, r14
    1010:	bf 09       	sbc	r27, r15
    1012:	89 3c       	cpi	r24, 0xC9	; 201
    1014:	91 05       	cpc	r25, r1
    1016:	a1 05       	cpc	r26, r1
    1018:	b1 05       	cpc	r27, r1
    101a:	50 f0       	brcs	.+20     	; 0x1030 <main+0xb6>
		{
			buzzer_time = systick_ms();
    101c:	0e 94 17 09 	call	0x122e	; 0x122e <systick_ms>
    1020:	6b 01       	movw	r12, r22
    1022:	7c 01       	movw	r14, r24
			digital_write(&PORTC,BUZZER,0);
    1024:	40 e0       	ldi	r20, 0x00	; 0
    1026:	62 e0       	ldi	r22, 0x02	; 2
    1028:	88 e2       	ldi	r24, 0x28	; 40
    102a:	90 e0       	ldi	r25, 0x00	; 0
    102c:	0e 94 cd 08 	call	0x119a	; 0x119a <digital_write>
		}

		if(digital_read(PIND,READ_STATE) == 0)
    1030:	89 b1       	in	r24, 0x09	; 9
    1032:	62 e0       	ldi	r22, 0x02	; 2
    1034:	0e 94 ed 08 	call	0x11da	; 0x11da <digital_read>
    1038:	67 2b       	or	r22, r23
    103a:	68 2b       	or	r22, r24
    103c:	69 2b       	or	r22, r25
    103e:	91 f5       	brne	.+100    	; 0x10a4 <main+0x12a>
		{
			if(systick_ms() - write_eeproom_time > 1010)
    1040:	0e 94 17 09 	call	0x122e	; 0x122e <systick_ms>
    1044:	dc 01       	movw	r26, r24
    1046:	cb 01       	movw	r24, r22
    1048:	88 19       	sub	r24, r8
    104a:	99 09       	sbc	r25, r9
    104c:	aa 09       	sbc	r26, r10
    104e:	bb 09       	sbc	r27, r11
    1050:	83 3f       	cpi	r24, 0xF3	; 243
    1052:	93 40       	sbci	r25, 0x03	; 3
    1054:	a1 05       	cpc	r26, r1
    1056:	b1 05       	cpc	r27, r1
    1058:	70 f2       	brcs	.-100    	; 0xff6 <main+0x7c>
			{
				write_eeproom_time = systick_ms();
    105a:	0e 94 17 09 	call	0x122e	; 0x122e <systick_ms>
    105e:	4b 01       	movw	r8, r22
    1060:	5c 01       	movw	r10, r24
				if(READ_UID_BCC_CMD(data) == SUCCESS)
    1062:	84 eb       	ldi	r24, 0xB4	; 180
    1064:	91 e0       	ldi	r25, 0x01	; 1
    1066:	0e 94 83 05 	call	0xb06	; 0xb06 <READ_UID_BCC_CMD>
    106a:	67 2b       	or	r22, r23
    106c:	68 2b       	or	r22, r24
    106e:	69 2b       	or	r22, r25
    1070:	11 f6       	brne	.-124    	; 0xff6 <main+0x7c>
				{
					digital_write(&PORTC,BUZZER,1);
    1072:	41 e0       	ldi	r20, 0x01	; 1
    1074:	62 e0       	ldi	r22, 0x02	; 2
    1076:	88 e2       	ldi	r24, 0x28	; 40
    1078:	90 e0       	ldi	r25, 0x00	; 0
    107a:	0e 94 cd 08 	call	0x119a	; 0x119a <digital_write>
					uint8_t check_exist = write_eeprom(eeprom_address,data);
    107e:	64 eb       	ldi	r22, 0xB4	; 180
    1080:	71 e0       	ldi	r23, 0x01	; 1
    1082:	80 91 00 01 	lds	r24, 0x0100	; 0x800100 <__data_start>
    1086:	90 91 01 01 	lds	r25, 0x0101	; 0x800101 <__data_start+0x1>
    108a:	0e 94 91 01 	call	0x322	; 0x322 <write_eeprom>
					if(check_exist == 0)
    108e:	61 11       	cpse	r22, r1
    1090:	03 c0       	rjmp	.+6      	; 0x1098 <main+0x11e>
					{
						lcd_state = LCD_NEW_CARD_CONFIRM;
    1092:	10 93 c2 01 	sts	0x01C2, r17	; 0x8001c2 <lcd_state>
    1096:	af cf       	rjmp	.-162    	; 0xff6 <main+0x7c>
						count_tag++;
					}
					else if(check_exist == DATA_EXIST)
    1098:	65 30       	cpi	r22, 0x05	; 5
    109a:	09 f0       	breq	.+2      	; 0x109e <main+0x124>
    109c:	ac cf       	rjmp	.-168    	; 0xff6 <main+0x7c>
					{
						lcd_state = LCD_CARD_INDENTITY_EXIST;
    109e:	00 93 c2 01 	sts	0x01C2, r16	; 0x8001c2 <lcd_state>
    10a2:	a9 cf       	rjmp	.-174    	; 0xff6 <main+0x7c>
				}
			}
		}
		else
		{
			if(systick_ms() - rfid_time >= 1010)
    10a4:	0e 94 17 09 	call	0x122e	; 0x122e <systick_ms>
    10a8:	dc 01       	movw	r26, r24
    10aa:	cb 01       	movw	r24, r22
    10ac:	84 19       	sub	r24, r4
    10ae:	95 09       	sbc	r25, r5
    10b0:	a6 09       	sbc	r26, r6
    10b2:	b7 09       	sbc	r27, r7
    10b4:	82 3f       	cpi	r24, 0xF2	; 242
    10b6:	93 40       	sbci	r25, 0x03	; 3
    10b8:	a1 05       	cpc	r26, r1
    10ba:	b1 05       	cpc	r27, r1
    10bc:	08 f4       	brcc	.+2      	; 0x10c0 <main+0x146>
    10be:	9b cf       	rjmp	.-202    	; 0xff6 <main+0x7c>
		{
			rfid_time = systick_ms();
    10c0:	0e 94 17 09 	call	0x122e	; 0x122e <systick_ms>
    10c4:	2b 01       	movw	r4, r22
    10c6:	3c 01       	movw	r6, r24
			if(READ_UID_BCC_CMD(data) == SUCCESS)
    10c8:	84 eb       	ldi	r24, 0xB4	; 180
    10ca:	91 e0       	ldi	r25, 0x01	; 1
    10cc:	0e 94 83 05 	call	0xb06	; 0xb06 <READ_UID_BCC_CMD>
    10d0:	67 2b       	or	r22, r23
    10d2:	68 2b       	or	r22, r24
    10d4:	69 2b       	or	r22, r25
    10d6:	09 f0       	breq	.+2      	; 0x10da <main+0x160>
    10d8:	8e cf       	rjmp	.-228    	; 0xff6 <main+0x7c>
			{
				digital_write(&PORTD,BUZZER,1);
    10da:	41 e0       	ldi	r20, 0x01	; 1
    10dc:	62 e0       	ldi	r22, 0x02	; 2
    10de:	8b e2       	ldi	r24, 0x2B	; 43
    10e0:	90 e0       	ldi	r25, 0x00	; 0
    10e2:	0e 94 cd 08 	call	0x119a	; 0x119a <digital_write>
				if(read_eeprom(data,&check_state) == SUCCESS)
    10e6:	be 01       	movw	r22, r28
    10e8:	6f 5f       	subi	r22, 0xFF	; 255
    10ea:	7f 4f       	sbci	r23, 0xFF	; 255
    10ec:	84 eb       	ldi	r24, 0xB4	; 180
    10ee:	91 e0       	ldi	r25, 0x01	; 1
    10f0:	0e 94 26 01 	call	0x24c	; 0x24c <read_eeprom>
    10f4:	67 2b       	or	r22, r23
    10f6:	68 2b       	or	r22, r24
    10f8:	69 2b       	or	r22, r25
    10fa:	09 f0       	breq	.+2      	; 0x10fe <main+0x184>
    10fc:	4a c0       	rjmp	.+148    	; 0x1192 <main+0x218>
				{
					lcd_state = LCD_SHOW_CONFIRM;
    10fe:	81 e0       	ldi	r24, 0x01	; 1
    1100:	80 93 c2 01 	sts	0x01C2, r24	; 0x8001c2 <lcd_state>
					if(check_state == 0)
    1104:	89 81       	ldd	r24, Y+1	; 0x01
    1106:	81 11       	cpse	r24, r1
    1108:	20 c0       	rjmp	.+64     	; 0x114a <main+0x1d0>
					{
						taken_spot++;
    110a:	80 91 ba 01 	lds	r24, 0x01BA	; 0x8001ba <taken_spot>
    110e:	90 91 bb 01 	lds	r25, 0x01BB	; 0x8001bb <taken_spot+0x1>
    1112:	a0 91 bc 01 	lds	r26, 0x01BC	; 0x8001bc <taken_spot+0x2>
    1116:	b0 91 bd 01 	lds	r27, 0x01BD	; 0x8001bd <taken_spot+0x3>
    111a:	01 96       	adiw	r24, 0x01	; 1
    111c:	a1 1d       	adc	r26, r1
    111e:	b1 1d       	adc	r27, r1
    1120:	80 93 ba 01 	sts	0x01BA, r24	; 0x8001ba <taken_spot>
    1124:	90 93 bb 01 	sts	0x01BB, r25	; 0x8001bb <taken_spot+0x1>
    1128:	a0 93 bc 01 	sts	0x01BC, r26	; 0x8001bc <taken_spot+0x2>
    112c:	b0 93 bd 01 	sts	0x01BD, r27	; 0x8001bd <taken_spot+0x3>
						if(taken_spot == (Parked + 1))
    1130:	03 97       	sbiw	r24, 0x03	; 3
    1132:	a1 05       	cpc	r26, r1
    1134:	b1 05       	cpc	r27, r1
    1136:	29 f4       	brne	.+10     	; 0x1142 <main+0x1c8>
						{
							servo_in_state = SERVO_IDLE;
    1138:	10 92 b9 01 	sts	0x01B9, r1	; 0x8001b9 <servo_in_state>
							servo_out_state = SERVO_IDLE;
    113c:	10 92 b8 01 	sts	0x01B8, r1	; 0x8001b8 <servo_out_state>
    1140:	5a cf       	rjmp	.-332    	; 0xff6 <main+0x7c>
						}
						else
						{
							servo_in_state = SERVO_IN_ON;
    1142:	81 e0       	ldi	r24, 0x01	; 1
    1144:	80 93 b9 01 	sts	0x01B9, r24	; 0x8001b9 <servo_in_state>
    1148:	56 cf       	rjmp	.-340    	; 0xff6 <main+0x7c>
						}
					}
					else if(check_state == 1)
    114a:	81 30       	cpi	r24, 0x01	; 1
    114c:	09 f0       	breq	.+2      	; 0x1150 <main+0x1d6>
    114e:	53 cf       	rjmp	.-346    	; 0xff6 <main+0x7c>
					{
						servo_out_state = SERVO_OUT_ON;
    1150:	10 93 b8 01 	sts	0x01B8, r17	; 0x8001b8 <servo_out_state>
						if (taken_spot == 0)
    1154:	80 91 ba 01 	lds	r24, 0x01BA	; 0x8001ba <taken_spot>
    1158:	90 91 bb 01 	lds	r25, 0x01BB	; 0x8001bb <taken_spot+0x1>
    115c:	a0 91 bc 01 	lds	r26, 0x01BC	; 0x8001bc <taken_spot+0x2>
    1160:	b0 91 bd 01 	lds	r27, 0x01BD	; 0x8001bd <taken_spot+0x3>
    1164:	00 97       	sbiw	r24, 0x00	; 0
    1166:	a1 05       	cpc	r26, r1
    1168:	b1 05       	cpc	r27, r1
    116a:	39 f4       	brne	.+14     	; 0x117a <main+0x200>
						{
							LCD_I2C_write_string("ERROR...",2,1);
    116c:	41 e0       	ldi	r20, 0x01	; 1
    116e:	62 e0       	ldi	r22, 0x02	; 2
    1170:	8a ea       	ldi	r24, 0xAA	; 170
    1172:	91 e0       	ldi	r25, 0x01	; 1
    1174:	0e 94 7d 03 	call	0x6fa	; 0x6fa <LCD_I2C_write_string>
    1178:	ff cf       	rjmp	.-2      	; 0x1178 <main+0x1fe>
							while(1)
							{
								
							}
						}
						taken_spot--;
    117a:	01 97       	sbiw	r24, 0x01	; 1
    117c:	a1 09       	sbc	r26, r1
    117e:	b1 09       	sbc	r27, r1
    1180:	80 93 ba 01 	sts	0x01BA, r24	; 0x8001ba <taken_spot>
    1184:	90 93 bb 01 	sts	0x01BB, r25	; 0x8001bb <taken_spot+0x1>
    1188:	a0 93 bc 01 	sts	0x01BC, r26	; 0x8001bc <taken_spot+0x2>
    118c:	b0 93 bd 01 	sts	0x01BD, r27	; 0x8001bd <taken_spot+0x3>
    1190:	32 cf       	rjmp	.-412    	; 0xff6 <main+0x7c>
					}
				}
				else
				{
					lcd_state = LCD_UNINDENTIFIED_CARD;
    1192:	82 e0       	ldi	r24, 0x02	; 2
    1194:	80 93 c2 01 	sts	0x01C2, r24	; 0x8001c2 <lcd_state>
    1198:	2e cf       	rjmp	.-420    	; 0xff6 <main+0x7c>

0000119a <digital_write>:
    119a:	41 30       	cpi	r20, 0x01	; 1
    119c:	61 f4       	brne	.+24     	; 0x11b6 <digital_write+0x1c>
    119e:	fc 01       	movw	r30, r24
    11a0:	40 81       	ld	r20, Z
    11a2:	21 e0       	ldi	r18, 0x01	; 1
    11a4:	30 e0       	ldi	r19, 0x00	; 0
    11a6:	02 c0       	rjmp	.+4      	; 0x11ac <digital_write+0x12>
    11a8:	22 0f       	add	r18, r18
    11aa:	33 1f       	adc	r19, r19
    11ac:	6a 95       	dec	r22
    11ae:	e2 f7       	brpl	.-8      	; 0x11a8 <digital_write+0xe>
    11b0:	24 2b       	or	r18, r20
    11b2:	20 83       	st	Z, r18
    11b4:	0e c0       	rjmp	.+28     	; 0x11d2 <digital_write+0x38>
    11b6:	41 11       	cpse	r20, r1
    11b8:	0c c0       	rjmp	.+24     	; 0x11d2 <digital_write+0x38>
    11ba:	fc 01       	movw	r30, r24
    11bc:	40 81       	ld	r20, Z
    11be:	21 e0       	ldi	r18, 0x01	; 1
    11c0:	30 e0       	ldi	r19, 0x00	; 0
    11c2:	02 c0       	rjmp	.+4      	; 0x11c8 <digital_write+0x2e>
    11c4:	22 0f       	add	r18, r18
    11c6:	33 1f       	adc	r19, r19
    11c8:	6a 95       	dec	r22
    11ca:	e2 f7       	brpl	.-8      	; 0x11c4 <digital_write+0x2a>
    11cc:	20 95       	com	r18
    11ce:	24 23       	and	r18, r20
    11d0:	20 83       	st	Z, r18
    11d2:	60 e0       	ldi	r22, 0x00	; 0
    11d4:	70 e0       	ldi	r23, 0x00	; 0
    11d6:	cb 01       	movw	r24, r22
    11d8:	08 95       	ret

000011da <digital_read>:
    11da:	cf 93       	push	r28
    11dc:	df 93       	push	r29
    11de:	1f 92       	push	r1
    11e0:	cd b7       	in	r28, 0x3d	; 61
    11e2:	de b7       	in	r29, 0x3e	; 62
    11e4:	89 83       	std	Y+1, r24	; 0x01
    11e6:	96 2f       	mov	r25, r22
    11e8:	89 81       	ldd	r24, Y+1	; 0x01
    11ea:	68 2f       	mov	r22, r24
    11ec:	70 e0       	ldi	r23, 0x00	; 0
    11ee:	02 c0       	rjmp	.+4      	; 0x11f4 <digital_read+0x1a>
    11f0:	75 95       	asr	r23
    11f2:	67 95       	ror	r22
    11f4:	9a 95       	dec	r25
    11f6:	e2 f7       	brpl	.-8      	; 0x11f0 <digital_read+0x16>
    11f8:	61 70       	andi	r22, 0x01	; 1
    11fa:	77 27       	eor	r23, r23
    11fc:	07 2e       	mov	r0, r23
    11fe:	00 0c       	add	r0, r0
    1200:	88 0b       	sbc	r24, r24
    1202:	99 0b       	sbc	r25, r25
    1204:	0f 90       	pop	r0
    1206:	df 91       	pop	r29
    1208:	cf 91       	pop	r28
    120a:	08 95       	ret

0000120c <init_systick_ms>:
    120c:	84 b5       	in	r24, 0x24	; 36
    120e:	82 60       	ori	r24, 0x02	; 2
    1210:	84 bd       	out	0x24, r24	; 36
    1212:	8c e7       	ldi	r24, 0x7C	; 124
    1214:	87 bd       	out	0x27, r24	; 39
    1216:	82 e0       	ldi	r24, 0x02	; 2
    1218:	85 bd       	out	0x25, r24	; 37
    121a:	78 94       	sei
    121c:	ee e6       	ldi	r30, 0x6E	; 110
    121e:	f0 e0       	ldi	r31, 0x00	; 0
    1220:	80 81       	ld	r24, Z
    1222:	82 60       	ori	r24, 0x02	; 2
    1224:	80 83       	st	Z, r24
    1226:	60 e0       	ldi	r22, 0x00	; 0
    1228:	70 e0       	ldi	r23, 0x00	; 0
    122a:	cb 01       	movw	r24, r22
    122c:	08 95       	ret

0000122e <systick_ms>:
    122e:	60 91 c7 01 	lds	r22, 0x01C7	; 0x8001c7 <millis_count>
    1232:	70 91 c8 01 	lds	r23, 0x01C8	; 0x8001c8 <millis_count+0x1>
    1236:	80 91 c9 01 	lds	r24, 0x01C9	; 0x8001c9 <millis_count+0x2>
    123a:	90 91 ca 01 	lds	r25, 0x01CA	; 0x8001ca <millis_count+0x3>
    123e:	08 95       	ret

00001240 <init_systick_us>:
    1240:	82 e0       	ldi	r24, 0x02	; 2
    1242:	80 93 b0 00 	sts	0x00B0, r24	; 0x8000b0 <__DATA_REGION_ORIGIN__+0x50>
    1246:	93 e1       	ldi	r25, 0x13	; 19
    1248:	90 93 b3 00 	sts	0x00B3, r25	; 0x8000b3 <__DATA_REGION_ORIGIN__+0x53>
    124c:	80 93 b1 00 	sts	0x00B1, r24	; 0x8000b1 <__DATA_REGION_ORIGIN__+0x51>
    1250:	80 93 70 00 	sts	0x0070, r24	; 0x800070 <__DATA_REGION_ORIGIN__+0x10>
    1254:	60 e0       	ldi	r22, 0x00	; 0
    1256:	70 e0       	ldi	r23, 0x00	; 0
    1258:	cb 01       	movw	r24, r22
    125a:	08 95       	ret

0000125c <__vector_14>:
    125c:	1f 92       	push	r1
    125e:	0f 92       	push	r0
    1260:	0f b6       	in	r0, 0x3f	; 63
    1262:	0f 92       	push	r0
    1264:	11 24       	eor	r1, r1
    1266:	8f 93       	push	r24
    1268:	9f 93       	push	r25
    126a:	af 93       	push	r26
    126c:	bf 93       	push	r27
    126e:	80 91 c7 01 	lds	r24, 0x01C7	; 0x8001c7 <millis_count>
    1272:	90 91 c8 01 	lds	r25, 0x01C8	; 0x8001c8 <millis_count+0x1>
    1276:	a0 91 c9 01 	lds	r26, 0x01C9	; 0x8001c9 <millis_count+0x2>
    127a:	b0 91 ca 01 	lds	r27, 0x01CA	; 0x8001ca <millis_count+0x3>
    127e:	01 96       	adiw	r24, 0x01	; 1
    1280:	a1 1d       	adc	r26, r1
    1282:	b1 1d       	adc	r27, r1
    1284:	80 93 c7 01 	sts	0x01C7, r24	; 0x8001c7 <millis_count>
    1288:	90 93 c8 01 	sts	0x01C8, r25	; 0x8001c8 <millis_count+0x1>
    128c:	a0 93 c9 01 	sts	0x01C9, r26	; 0x8001c9 <millis_count+0x2>
    1290:	b0 93 ca 01 	sts	0x01CA, r27	; 0x8001ca <millis_count+0x3>
    1294:	bf 91       	pop	r27
    1296:	af 91       	pop	r26
    1298:	9f 91       	pop	r25
    129a:	8f 91       	pop	r24
    129c:	0f 90       	pop	r0
    129e:	0f be       	out	0x3f, r0	; 63
    12a0:	0f 90       	pop	r0
    12a2:	1f 90       	pop	r1
    12a4:	18 95       	reti

000012a6 <__vector_7>:
    12a6:	1f 92       	push	r1
    12a8:	0f 92       	push	r0
    12aa:	0f b6       	in	r0, 0x3f	; 63
    12ac:	0f 92       	push	r0
    12ae:	11 24       	eor	r1, r1
    12b0:	8f 93       	push	r24
    12b2:	9f 93       	push	r25
    12b4:	af 93       	push	r26
    12b6:	bf 93       	push	r27
    12b8:	80 91 c3 01 	lds	r24, 0x01C3	; 0x8001c3 <micros_count>
    12bc:	90 91 c4 01 	lds	r25, 0x01C4	; 0x8001c4 <micros_count+0x1>
    12c0:	a0 91 c5 01 	lds	r26, 0x01C5	; 0x8001c5 <micros_count+0x2>
    12c4:	b0 91 c6 01 	lds	r27, 0x01C6	; 0x8001c6 <micros_count+0x3>
    12c8:	0a 96       	adiw	r24, 0x0a	; 10
    12ca:	a1 1d       	adc	r26, r1
    12cc:	b1 1d       	adc	r27, r1
    12ce:	80 93 c3 01 	sts	0x01C3, r24	; 0x8001c3 <micros_count>
    12d2:	90 93 c4 01 	sts	0x01C4, r25	; 0x8001c4 <micros_count+0x1>
    12d6:	a0 93 c5 01 	sts	0x01C5, r26	; 0x8001c5 <micros_count+0x2>
    12da:	b0 93 c6 01 	sts	0x01C6, r27	; 0x8001c6 <micros_count+0x3>
    12de:	bf 91       	pop	r27
    12e0:	af 91       	pop	r26
    12e2:	9f 91       	pop	r25
    12e4:	8f 91       	pop	r24
    12e6:	0f 90       	pop	r0
    12e8:	0f be       	out	0x3f, r0	; 63
    12ea:	0f 90       	pop	r0
    12ec:	1f 90       	pop	r1
    12ee:	18 95       	reti

000012f0 <__divmodsi4>:
    12f0:	05 2e       	mov	r0, r21
    12f2:	97 fb       	bst	r25, 7
    12f4:	1e f4       	brtc	.+6      	; 0x12fc <__divmodsi4+0xc>
    12f6:	00 94       	com	r0
    12f8:	0e 94 8f 09 	call	0x131e	; 0x131e <__negsi2>
    12fc:	57 fd       	sbrc	r21, 7
    12fe:	07 d0       	rcall	.+14     	; 0x130e <__divmodsi4_neg2>
    1300:	0e 94 9d 09 	call	0x133a	; 0x133a <__udivmodsi4>
    1304:	07 fc       	sbrc	r0, 7
    1306:	03 d0       	rcall	.+6      	; 0x130e <__divmodsi4_neg2>
    1308:	4e f4       	brtc	.+18     	; 0x131c <__divmodsi4_exit>
    130a:	0c 94 8f 09 	jmp	0x131e	; 0x131e <__negsi2>

0000130e <__divmodsi4_neg2>:
    130e:	50 95       	com	r21
    1310:	40 95       	com	r20
    1312:	30 95       	com	r19
    1314:	21 95       	neg	r18
    1316:	3f 4f       	sbci	r19, 0xFF	; 255
    1318:	4f 4f       	sbci	r20, 0xFF	; 255
    131a:	5f 4f       	sbci	r21, 0xFF	; 255

0000131c <__divmodsi4_exit>:
    131c:	08 95       	ret

0000131e <__negsi2>:
    131e:	90 95       	com	r25
    1320:	80 95       	com	r24
    1322:	70 95       	com	r23
    1324:	61 95       	neg	r22
    1326:	7f 4f       	sbci	r23, 0xFF	; 255
    1328:	8f 4f       	sbci	r24, 0xFF	; 255
    132a:	9f 4f       	sbci	r25, 0xFF	; 255
    132c:	08 95       	ret

0000132e <__tablejump2__>:
    132e:	ee 0f       	add	r30, r30
    1330:	ff 1f       	adc	r31, r31
    1332:	05 90       	lpm	r0, Z+
    1334:	f4 91       	lpm	r31, Z
    1336:	e0 2d       	mov	r30, r0
    1338:	09 94       	ijmp

0000133a <__udivmodsi4>:
    133a:	a1 e2       	ldi	r26, 0x21	; 33
    133c:	1a 2e       	mov	r1, r26
    133e:	aa 1b       	sub	r26, r26
    1340:	bb 1b       	sub	r27, r27
    1342:	fd 01       	movw	r30, r26
    1344:	0d c0       	rjmp	.+26     	; 0x1360 <__udivmodsi4_ep>

00001346 <__udivmodsi4_loop>:
    1346:	aa 1f       	adc	r26, r26
    1348:	bb 1f       	adc	r27, r27
    134a:	ee 1f       	adc	r30, r30
    134c:	ff 1f       	adc	r31, r31
    134e:	a2 17       	cp	r26, r18
    1350:	b3 07       	cpc	r27, r19
    1352:	e4 07       	cpc	r30, r20
    1354:	f5 07       	cpc	r31, r21
    1356:	20 f0       	brcs	.+8      	; 0x1360 <__udivmodsi4_ep>
    1358:	a2 1b       	sub	r26, r18
    135a:	b3 0b       	sbc	r27, r19
    135c:	e4 0b       	sbc	r30, r20
    135e:	f5 0b       	sbc	r31, r21

00001360 <__udivmodsi4_ep>:
    1360:	66 1f       	adc	r22, r22
    1362:	77 1f       	adc	r23, r23
    1364:	88 1f       	adc	r24, r24
    1366:	99 1f       	adc	r25, r25
    1368:	1a 94       	dec	r1
    136a:	69 f7       	brne	.-38     	; 0x1346 <__udivmodsi4_loop>
    136c:	60 95       	com	r22
    136e:	70 95       	com	r23
    1370:	80 95       	com	r24
    1372:	90 95       	com	r25
    1374:	9b 01       	movw	r18, r22
    1376:	ac 01       	movw	r20, r24
    1378:	bd 01       	movw	r22, r26
    137a:	cf 01       	movw	r24, r30
    137c:	08 95       	ret

0000137e <snprintf>:
    137e:	ae e0       	ldi	r26, 0x0E	; 14
    1380:	b0 e0       	ldi	r27, 0x00	; 0
    1382:	e5 ec       	ldi	r30, 0xC5	; 197
    1384:	f9 e0       	ldi	r31, 0x09	; 9
    1386:	0c 94 a4 0c 	jmp	0x1948	; 0x1948 <__prologue_saves__+0x1c>
    138a:	0d 89       	ldd	r16, Y+21	; 0x15
    138c:	1e 89       	ldd	r17, Y+22	; 0x16
    138e:	8f 89       	ldd	r24, Y+23	; 0x17
    1390:	98 8d       	ldd	r25, Y+24	; 0x18
    1392:	26 e0       	ldi	r18, 0x06	; 6
    1394:	2c 83       	std	Y+4, r18	; 0x04
    1396:	1a 83       	std	Y+2, r17	; 0x02
    1398:	09 83       	std	Y+1, r16	; 0x01
    139a:	97 ff       	sbrs	r25, 7
    139c:	02 c0       	rjmp	.+4      	; 0x13a2 <snprintf+0x24>
    139e:	80 e0       	ldi	r24, 0x00	; 0
    13a0:	90 e8       	ldi	r25, 0x80	; 128
    13a2:	01 97       	sbiw	r24, 0x01	; 1
    13a4:	9e 83       	std	Y+6, r25	; 0x06
    13a6:	8d 83       	std	Y+5, r24	; 0x05
    13a8:	ae 01       	movw	r20, r28
    13aa:	45 5e       	subi	r20, 0xE5	; 229
    13ac:	5f 4f       	sbci	r21, 0xFF	; 255
    13ae:	69 8d       	ldd	r22, Y+25	; 0x19
    13b0:	7a 8d       	ldd	r23, Y+26	; 0x1a
    13b2:	ce 01       	movw	r24, r28
    13b4:	01 96       	adiw	r24, 0x01	; 1
    13b6:	0e 94 ef 09 	call	0x13de	; 0x13de <vfprintf>
    13ba:	4d 81       	ldd	r20, Y+5	; 0x05
    13bc:	5e 81       	ldd	r21, Y+6	; 0x06
    13be:	57 fd       	sbrc	r21, 7
    13c0:	0a c0       	rjmp	.+20     	; 0x13d6 <snprintf+0x58>
    13c2:	2f 81       	ldd	r18, Y+7	; 0x07
    13c4:	38 85       	ldd	r19, Y+8	; 0x08
    13c6:	42 17       	cp	r20, r18
    13c8:	53 07       	cpc	r21, r19
    13ca:	0c f4       	brge	.+2      	; 0x13ce <snprintf+0x50>
    13cc:	9a 01       	movw	r18, r20
    13ce:	f8 01       	movw	r30, r16
    13d0:	e2 0f       	add	r30, r18
    13d2:	f3 1f       	adc	r31, r19
    13d4:	10 82       	st	Z, r1
    13d6:	2e 96       	adiw	r28, 0x0e	; 14
    13d8:	e4 e0       	ldi	r30, 0x04	; 4
    13da:	0c 94 c0 0c 	jmp	0x1980	; 0x1980 <__epilogue_restores__+0x1c>

000013de <vfprintf>:
    13de:	ab e0       	ldi	r26, 0x0B	; 11
    13e0:	b0 e0       	ldi	r27, 0x00	; 0
    13e2:	e5 ef       	ldi	r30, 0xF5	; 245
    13e4:	f9 e0       	ldi	r31, 0x09	; 9
    13e6:	0c 94 96 0c 	jmp	0x192c	; 0x192c <__prologue_saves__>
    13ea:	6c 01       	movw	r12, r24
    13ec:	7b 01       	movw	r14, r22
    13ee:	8a 01       	movw	r16, r20
    13f0:	fc 01       	movw	r30, r24
    13f2:	17 82       	std	Z+7, r1	; 0x07
    13f4:	16 82       	std	Z+6, r1	; 0x06
    13f6:	83 81       	ldd	r24, Z+3	; 0x03
    13f8:	81 ff       	sbrs	r24, 1
    13fa:	cc c1       	rjmp	.+920    	; 0x1794 <vfprintf+0x3b6>
    13fc:	ce 01       	movw	r24, r28
    13fe:	01 96       	adiw	r24, 0x01	; 1
    1400:	3c 01       	movw	r6, r24
    1402:	f6 01       	movw	r30, r12
    1404:	93 81       	ldd	r25, Z+3	; 0x03
    1406:	f7 01       	movw	r30, r14
    1408:	93 fd       	sbrc	r25, 3
    140a:	85 91       	lpm	r24, Z+
    140c:	93 ff       	sbrs	r25, 3
    140e:	81 91       	ld	r24, Z+
    1410:	7f 01       	movw	r14, r30
    1412:	88 23       	and	r24, r24
    1414:	09 f4       	brne	.+2      	; 0x1418 <vfprintf+0x3a>
    1416:	ba c1       	rjmp	.+884    	; 0x178c <vfprintf+0x3ae>
    1418:	85 32       	cpi	r24, 0x25	; 37
    141a:	39 f4       	brne	.+14     	; 0x142a <vfprintf+0x4c>
    141c:	93 fd       	sbrc	r25, 3
    141e:	85 91       	lpm	r24, Z+
    1420:	93 ff       	sbrs	r25, 3
    1422:	81 91       	ld	r24, Z+
    1424:	7f 01       	movw	r14, r30
    1426:	85 32       	cpi	r24, 0x25	; 37
    1428:	29 f4       	brne	.+10     	; 0x1434 <vfprintf+0x56>
    142a:	b6 01       	movw	r22, r12
    142c:	90 e0       	ldi	r25, 0x00	; 0
    142e:	0e 94 e6 0b 	call	0x17cc	; 0x17cc <fputc>
    1432:	e7 cf       	rjmp	.-50     	; 0x1402 <vfprintf+0x24>
    1434:	91 2c       	mov	r9, r1
    1436:	21 2c       	mov	r2, r1
    1438:	31 2c       	mov	r3, r1
    143a:	ff e1       	ldi	r31, 0x1F	; 31
    143c:	f3 15       	cp	r31, r3
    143e:	d8 f0       	brcs	.+54     	; 0x1476 <vfprintf+0x98>
    1440:	8b 32       	cpi	r24, 0x2B	; 43
    1442:	79 f0       	breq	.+30     	; 0x1462 <vfprintf+0x84>
    1444:	38 f4       	brcc	.+14     	; 0x1454 <vfprintf+0x76>
    1446:	80 32       	cpi	r24, 0x20	; 32
    1448:	79 f0       	breq	.+30     	; 0x1468 <vfprintf+0x8a>
    144a:	83 32       	cpi	r24, 0x23	; 35
    144c:	a1 f4       	brne	.+40     	; 0x1476 <vfprintf+0x98>
    144e:	23 2d       	mov	r18, r3
    1450:	20 61       	ori	r18, 0x10	; 16
    1452:	1d c0       	rjmp	.+58     	; 0x148e <vfprintf+0xb0>
    1454:	8d 32       	cpi	r24, 0x2D	; 45
    1456:	61 f0       	breq	.+24     	; 0x1470 <vfprintf+0x92>
    1458:	80 33       	cpi	r24, 0x30	; 48
    145a:	69 f4       	brne	.+26     	; 0x1476 <vfprintf+0x98>
    145c:	23 2d       	mov	r18, r3
    145e:	21 60       	ori	r18, 0x01	; 1
    1460:	16 c0       	rjmp	.+44     	; 0x148e <vfprintf+0xb0>
    1462:	83 2d       	mov	r24, r3
    1464:	82 60       	ori	r24, 0x02	; 2
    1466:	38 2e       	mov	r3, r24
    1468:	e3 2d       	mov	r30, r3
    146a:	e4 60       	ori	r30, 0x04	; 4
    146c:	3e 2e       	mov	r3, r30
    146e:	2a c0       	rjmp	.+84     	; 0x14c4 <vfprintf+0xe6>
    1470:	f3 2d       	mov	r31, r3
    1472:	f8 60       	ori	r31, 0x08	; 8
    1474:	1d c0       	rjmp	.+58     	; 0x14b0 <vfprintf+0xd2>
    1476:	37 fc       	sbrc	r3, 7
    1478:	2d c0       	rjmp	.+90     	; 0x14d4 <vfprintf+0xf6>
    147a:	20 ed       	ldi	r18, 0xD0	; 208
    147c:	28 0f       	add	r18, r24
    147e:	2a 30       	cpi	r18, 0x0A	; 10
    1480:	40 f0       	brcs	.+16     	; 0x1492 <vfprintf+0xb4>
    1482:	8e 32       	cpi	r24, 0x2E	; 46
    1484:	b9 f4       	brne	.+46     	; 0x14b4 <vfprintf+0xd6>
    1486:	36 fc       	sbrc	r3, 6
    1488:	81 c1       	rjmp	.+770    	; 0x178c <vfprintf+0x3ae>
    148a:	23 2d       	mov	r18, r3
    148c:	20 64       	ori	r18, 0x40	; 64
    148e:	32 2e       	mov	r3, r18
    1490:	19 c0       	rjmp	.+50     	; 0x14c4 <vfprintf+0xe6>
    1492:	36 fe       	sbrs	r3, 6
    1494:	06 c0       	rjmp	.+12     	; 0x14a2 <vfprintf+0xc4>
    1496:	8a e0       	ldi	r24, 0x0A	; 10
    1498:	98 9e       	mul	r9, r24
    149a:	20 0d       	add	r18, r0
    149c:	11 24       	eor	r1, r1
    149e:	92 2e       	mov	r9, r18
    14a0:	11 c0       	rjmp	.+34     	; 0x14c4 <vfprintf+0xe6>
    14a2:	ea e0       	ldi	r30, 0x0A	; 10
    14a4:	2e 9e       	mul	r2, r30
    14a6:	20 0d       	add	r18, r0
    14a8:	11 24       	eor	r1, r1
    14aa:	22 2e       	mov	r2, r18
    14ac:	f3 2d       	mov	r31, r3
    14ae:	f0 62       	ori	r31, 0x20	; 32
    14b0:	3f 2e       	mov	r3, r31
    14b2:	08 c0       	rjmp	.+16     	; 0x14c4 <vfprintf+0xe6>
    14b4:	8c 36       	cpi	r24, 0x6C	; 108
    14b6:	21 f4       	brne	.+8      	; 0x14c0 <vfprintf+0xe2>
    14b8:	83 2d       	mov	r24, r3
    14ba:	80 68       	ori	r24, 0x80	; 128
    14bc:	38 2e       	mov	r3, r24
    14be:	02 c0       	rjmp	.+4      	; 0x14c4 <vfprintf+0xe6>
    14c0:	88 36       	cpi	r24, 0x68	; 104
    14c2:	41 f4       	brne	.+16     	; 0x14d4 <vfprintf+0xf6>
    14c4:	f7 01       	movw	r30, r14
    14c6:	93 fd       	sbrc	r25, 3
    14c8:	85 91       	lpm	r24, Z+
    14ca:	93 ff       	sbrs	r25, 3
    14cc:	81 91       	ld	r24, Z+
    14ce:	7f 01       	movw	r14, r30
    14d0:	81 11       	cpse	r24, r1
    14d2:	b3 cf       	rjmp	.-154    	; 0x143a <vfprintf+0x5c>
    14d4:	98 2f       	mov	r25, r24
    14d6:	9f 7d       	andi	r25, 0xDF	; 223
    14d8:	95 54       	subi	r25, 0x45	; 69
    14da:	93 30       	cpi	r25, 0x03	; 3
    14dc:	28 f4       	brcc	.+10     	; 0x14e8 <vfprintf+0x10a>
    14de:	0c 5f       	subi	r16, 0xFC	; 252
    14e0:	1f 4f       	sbci	r17, 0xFF	; 255
    14e2:	9f e3       	ldi	r25, 0x3F	; 63
    14e4:	99 83       	std	Y+1, r25	; 0x01
    14e6:	0d c0       	rjmp	.+26     	; 0x1502 <vfprintf+0x124>
    14e8:	83 36       	cpi	r24, 0x63	; 99
    14ea:	31 f0       	breq	.+12     	; 0x14f8 <vfprintf+0x11a>
    14ec:	83 37       	cpi	r24, 0x73	; 115
    14ee:	71 f0       	breq	.+28     	; 0x150c <vfprintf+0x12e>
    14f0:	83 35       	cpi	r24, 0x53	; 83
    14f2:	09 f0       	breq	.+2      	; 0x14f6 <vfprintf+0x118>
    14f4:	59 c0       	rjmp	.+178    	; 0x15a8 <vfprintf+0x1ca>
    14f6:	21 c0       	rjmp	.+66     	; 0x153a <vfprintf+0x15c>
    14f8:	f8 01       	movw	r30, r16
    14fa:	80 81       	ld	r24, Z
    14fc:	89 83       	std	Y+1, r24	; 0x01
    14fe:	0e 5f       	subi	r16, 0xFE	; 254
    1500:	1f 4f       	sbci	r17, 0xFF	; 255
    1502:	88 24       	eor	r8, r8
    1504:	83 94       	inc	r8
    1506:	91 2c       	mov	r9, r1
    1508:	53 01       	movw	r10, r6
    150a:	13 c0       	rjmp	.+38     	; 0x1532 <vfprintf+0x154>
    150c:	28 01       	movw	r4, r16
    150e:	f2 e0       	ldi	r31, 0x02	; 2
    1510:	4f 0e       	add	r4, r31
    1512:	51 1c       	adc	r5, r1
    1514:	f8 01       	movw	r30, r16
    1516:	a0 80       	ld	r10, Z
    1518:	b1 80       	ldd	r11, Z+1	; 0x01
    151a:	36 fe       	sbrs	r3, 6
    151c:	03 c0       	rjmp	.+6      	; 0x1524 <vfprintf+0x146>
    151e:	69 2d       	mov	r22, r9
    1520:	70 e0       	ldi	r23, 0x00	; 0
    1522:	02 c0       	rjmp	.+4      	; 0x1528 <vfprintf+0x14a>
    1524:	6f ef       	ldi	r22, 0xFF	; 255
    1526:	7f ef       	ldi	r23, 0xFF	; 255
    1528:	c5 01       	movw	r24, r10
    152a:	0e 94 db 0b 	call	0x17b6	; 0x17b6 <strnlen>
    152e:	4c 01       	movw	r8, r24
    1530:	82 01       	movw	r16, r4
    1532:	f3 2d       	mov	r31, r3
    1534:	ff 77       	andi	r31, 0x7F	; 127
    1536:	3f 2e       	mov	r3, r31
    1538:	16 c0       	rjmp	.+44     	; 0x1566 <vfprintf+0x188>
    153a:	28 01       	movw	r4, r16
    153c:	22 e0       	ldi	r18, 0x02	; 2
    153e:	42 0e       	add	r4, r18
    1540:	51 1c       	adc	r5, r1
    1542:	f8 01       	movw	r30, r16
    1544:	a0 80       	ld	r10, Z
    1546:	b1 80       	ldd	r11, Z+1	; 0x01
    1548:	36 fe       	sbrs	r3, 6
    154a:	03 c0       	rjmp	.+6      	; 0x1552 <vfprintf+0x174>
    154c:	69 2d       	mov	r22, r9
    154e:	70 e0       	ldi	r23, 0x00	; 0
    1550:	02 c0       	rjmp	.+4      	; 0x1556 <vfprintf+0x178>
    1552:	6f ef       	ldi	r22, 0xFF	; 255
    1554:	7f ef       	ldi	r23, 0xFF	; 255
    1556:	c5 01       	movw	r24, r10
    1558:	0e 94 d0 0b 	call	0x17a0	; 0x17a0 <strnlen_P>
    155c:	4c 01       	movw	r8, r24
    155e:	f3 2d       	mov	r31, r3
    1560:	f0 68       	ori	r31, 0x80	; 128
    1562:	3f 2e       	mov	r3, r31
    1564:	82 01       	movw	r16, r4
    1566:	33 fc       	sbrc	r3, 3
    1568:	1b c0       	rjmp	.+54     	; 0x15a0 <vfprintf+0x1c2>
    156a:	82 2d       	mov	r24, r2
    156c:	90 e0       	ldi	r25, 0x00	; 0
    156e:	88 16       	cp	r8, r24
    1570:	99 06       	cpc	r9, r25
    1572:	b0 f4       	brcc	.+44     	; 0x15a0 <vfprintf+0x1c2>
    1574:	b6 01       	movw	r22, r12
    1576:	80 e2       	ldi	r24, 0x20	; 32
    1578:	90 e0       	ldi	r25, 0x00	; 0
    157a:	0e 94 e6 0b 	call	0x17cc	; 0x17cc <fputc>
    157e:	2a 94       	dec	r2
    1580:	f4 cf       	rjmp	.-24     	; 0x156a <vfprintf+0x18c>
    1582:	f5 01       	movw	r30, r10
    1584:	37 fc       	sbrc	r3, 7
    1586:	85 91       	lpm	r24, Z+
    1588:	37 fe       	sbrs	r3, 7
    158a:	81 91       	ld	r24, Z+
    158c:	5f 01       	movw	r10, r30
    158e:	b6 01       	movw	r22, r12
    1590:	90 e0       	ldi	r25, 0x00	; 0
    1592:	0e 94 e6 0b 	call	0x17cc	; 0x17cc <fputc>
    1596:	21 10       	cpse	r2, r1
    1598:	2a 94       	dec	r2
    159a:	21 e0       	ldi	r18, 0x01	; 1
    159c:	82 1a       	sub	r8, r18
    159e:	91 08       	sbc	r9, r1
    15a0:	81 14       	cp	r8, r1
    15a2:	91 04       	cpc	r9, r1
    15a4:	71 f7       	brne	.-36     	; 0x1582 <vfprintf+0x1a4>
    15a6:	e8 c0       	rjmp	.+464    	; 0x1778 <vfprintf+0x39a>
    15a8:	84 36       	cpi	r24, 0x64	; 100
    15aa:	11 f0       	breq	.+4      	; 0x15b0 <vfprintf+0x1d2>
    15ac:	89 36       	cpi	r24, 0x69	; 105
    15ae:	41 f5       	brne	.+80     	; 0x1600 <vfprintf+0x222>
    15b0:	f8 01       	movw	r30, r16
    15b2:	37 fe       	sbrs	r3, 7
    15b4:	07 c0       	rjmp	.+14     	; 0x15c4 <vfprintf+0x1e6>
    15b6:	60 81       	ld	r22, Z
    15b8:	71 81       	ldd	r23, Z+1	; 0x01
    15ba:	82 81       	ldd	r24, Z+2	; 0x02
    15bc:	93 81       	ldd	r25, Z+3	; 0x03
    15be:	0c 5f       	subi	r16, 0xFC	; 252
    15c0:	1f 4f       	sbci	r17, 0xFF	; 255
    15c2:	08 c0       	rjmp	.+16     	; 0x15d4 <vfprintf+0x1f6>
    15c4:	60 81       	ld	r22, Z
    15c6:	71 81       	ldd	r23, Z+1	; 0x01
    15c8:	07 2e       	mov	r0, r23
    15ca:	00 0c       	add	r0, r0
    15cc:	88 0b       	sbc	r24, r24
    15ce:	99 0b       	sbc	r25, r25
    15d0:	0e 5f       	subi	r16, 0xFE	; 254
    15d2:	1f 4f       	sbci	r17, 0xFF	; 255
    15d4:	f3 2d       	mov	r31, r3
    15d6:	ff 76       	andi	r31, 0x6F	; 111
    15d8:	3f 2e       	mov	r3, r31
    15da:	97 ff       	sbrs	r25, 7
    15dc:	09 c0       	rjmp	.+18     	; 0x15f0 <vfprintf+0x212>
    15de:	90 95       	com	r25
    15e0:	80 95       	com	r24
    15e2:	70 95       	com	r23
    15e4:	61 95       	neg	r22
    15e6:	7f 4f       	sbci	r23, 0xFF	; 255
    15e8:	8f 4f       	sbci	r24, 0xFF	; 255
    15ea:	9f 4f       	sbci	r25, 0xFF	; 255
    15ec:	f0 68       	ori	r31, 0x80	; 128
    15ee:	3f 2e       	mov	r3, r31
    15f0:	2a e0       	ldi	r18, 0x0A	; 10
    15f2:	30 e0       	ldi	r19, 0x00	; 0
    15f4:	a3 01       	movw	r20, r6
    15f6:	0e 94 22 0c 	call	0x1844	; 0x1844 <__ultoa_invert>
    15fa:	88 2e       	mov	r8, r24
    15fc:	86 18       	sub	r8, r6
    15fe:	45 c0       	rjmp	.+138    	; 0x168a <vfprintf+0x2ac>
    1600:	85 37       	cpi	r24, 0x75	; 117
    1602:	31 f4       	brne	.+12     	; 0x1610 <vfprintf+0x232>
    1604:	23 2d       	mov	r18, r3
    1606:	2f 7e       	andi	r18, 0xEF	; 239
    1608:	b2 2e       	mov	r11, r18
    160a:	2a e0       	ldi	r18, 0x0A	; 10
    160c:	30 e0       	ldi	r19, 0x00	; 0
    160e:	25 c0       	rjmp	.+74     	; 0x165a <vfprintf+0x27c>
    1610:	93 2d       	mov	r25, r3
    1612:	99 7f       	andi	r25, 0xF9	; 249
    1614:	b9 2e       	mov	r11, r25
    1616:	8f 36       	cpi	r24, 0x6F	; 111
    1618:	c1 f0       	breq	.+48     	; 0x164a <vfprintf+0x26c>
    161a:	18 f4       	brcc	.+6      	; 0x1622 <vfprintf+0x244>
    161c:	88 35       	cpi	r24, 0x58	; 88
    161e:	79 f0       	breq	.+30     	; 0x163e <vfprintf+0x260>
    1620:	b5 c0       	rjmp	.+362    	; 0x178c <vfprintf+0x3ae>
    1622:	80 37       	cpi	r24, 0x70	; 112
    1624:	19 f0       	breq	.+6      	; 0x162c <vfprintf+0x24e>
    1626:	88 37       	cpi	r24, 0x78	; 120
    1628:	21 f0       	breq	.+8      	; 0x1632 <vfprintf+0x254>
    162a:	b0 c0       	rjmp	.+352    	; 0x178c <vfprintf+0x3ae>
    162c:	e9 2f       	mov	r30, r25
    162e:	e0 61       	ori	r30, 0x10	; 16
    1630:	be 2e       	mov	r11, r30
    1632:	b4 fe       	sbrs	r11, 4
    1634:	0d c0       	rjmp	.+26     	; 0x1650 <vfprintf+0x272>
    1636:	fb 2d       	mov	r31, r11
    1638:	f4 60       	ori	r31, 0x04	; 4
    163a:	bf 2e       	mov	r11, r31
    163c:	09 c0       	rjmp	.+18     	; 0x1650 <vfprintf+0x272>
    163e:	34 fe       	sbrs	r3, 4
    1640:	0a c0       	rjmp	.+20     	; 0x1656 <vfprintf+0x278>
    1642:	29 2f       	mov	r18, r25
    1644:	26 60       	ori	r18, 0x06	; 6
    1646:	b2 2e       	mov	r11, r18
    1648:	06 c0       	rjmp	.+12     	; 0x1656 <vfprintf+0x278>
    164a:	28 e0       	ldi	r18, 0x08	; 8
    164c:	30 e0       	ldi	r19, 0x00	; 0
    164e:	05 c0       	rjmp	.+10     	; 0x165a <vfprintf+0x27c>
    1650:	20 e1       	ldi	r18, 0x10	; 16
    1652:	30 e0       	ldi	r19, 0x00	; 0
    1654:	02 c0       	rjmp	.+4      	; 0x165a <vfprintf+0x27c>
    1656:	20 e1       	ldi	r18, 0x10	; 16
    1658:	32 e0       	ldi	r19, 0x02	; 2
    165a:	f8 01       	movw	r30, r16
    165c:	b7 fe       	sbrs	r11, 7
    165e:	07 c0       	rjmp	.+14     	; 0x166e <vfprintf+0x290>
    1660:	60 81       	ld	r22, Z
    1662:	71 81       	ldd	r23, Z+1	; 0x01
    1664:	82 81       	ldd	r24, Z+2	; 0x02
    1666:	93 81       	ldd	r25, Z+3	; 0x03
    1668:	0c 5f       	subi	r16, 0xFC	; 252
    166a:	1f 4f       	sbci	r17, 0xFF	; 255
    166c:	06 c0       	rjmp	.+12     	; 0x167a <vfprintf+0x29c>
    166e:	60 81       	ld	r22, Z
    1670:	71 81       	ldd	r23, Z+1	; 0x01
    1672:	80 e0       	ldi	r24, 0x00	; 0
    1674:	90 e0       	ldi	r25, 0x00	; 0
    1676:	0e 5f       	subi	r16, 0xFE	; 254
    1678:	1f 4f       	sbci	r17, 0xFF	; 255
    167a:	a3 01       	movw	r20, r6
    167c:	0e 94 22 0c 	call	0x1844	; 0x1844 <__ultoa_invert>
    1680:	88 2e       	mov	r8, r24
    1682:	86 18       	sub	r8, r6
    1684:	fb 2d       	mov	r31, r11
    1686:	ff 77       	andi	r31, 0x7F	; 127
    1688:	3f 2e       	mov	r3, r31
    168a:	36 fe       	sbrs	r3, 6
    168c:	0d c0       	rjmp	.+26     	; 0x16a8 <vfprintf+0x2ca>
    168e:	23 2d       	mov	r18, r3
    1690:	2e 7f       	andi	r18, 0xFE	; 254
    1692:	a2 2e       	mov	r10, r18
    1694:	89 14       	cp	r8, r9
    1696:	58 f4       	brcc	.+22     	; 0x16ae <vfprintf+0x2d0>
    1698:	34 fe       	sbrs	r3, 4
    169a:	0b c0       	rjmp	.+22     	; 0x16b2 <vfprintf+0x2d4>
    169c:	32 fc       	sbrc	r3, 2
    169e:	09 c0       	rjmp	.+18     	; 0x16b2 <vfprintf+0x2d4>
    16a0:	83 2d       	mov	r24, r3
    16a2:	8e 7e       	andi	r24, 0xEE	; 238
    16a4:	a8 2e       	mov	r10, r24
    16a6:	05 c0       	rjmp	.+10     	; 0x16b2 <vfprintf+0x2d4>
    16a8:	b8 2c       	mov	r11, r8
    16aa:	a3 2c       	mov	r10, r3
    16ac:	03 c0       	rjmp	.+6      	; 0x16b4 <vfprintf+0x2d6>
    16ae:	b8 2c       	mov	r11, r8
    16b0:	01 c0       	rjmp	.+2      	; 0x16b4 <vfprintf+0x2d6>
    16b2:	b9 2c       	mov	r11, r9
    16b4:	a4 fe       	sbrs	r10, 4
    16b6:	0f c0       	rjmp	.+30     	; 0x16d6 <vfprintf+0x2f8>
    16b8:	fe 01       	movw	r30, r28
    16ba:	e8 0d       	add	r30, r8
    16bc:	f1 1d       	adc	r31, r1
    16be:	80 81       	ld	r24, Z
    16c0:	80 33       	cpi	r24, 0x30	; 48
    16c2:	21 f4       	brne	.+8      	; 0x16cc <vfprintf+0x2ee>
    16c4:	9a 2d       	mov	r25, r10
    16c6:	99 7e       	andi	r25, 0xE9	; 233
    16c8:	a9 2e       	mov	r10, r25
    16ca:	09 c0       	rjmp	.+18     	; 0x16de <vfprintf+0x300>
    16cc:	a2 fe       	sbrs	r10, 2
    16ce:	06 c0       	rjmp	.+12     	; 0x16dc <vfprintf+0x2fe>
    16d0:	b3 94       	inc	r11
    16d2:	b3 94       	inc	r11
    16d4:	04 c0       	rjmp	.+8      	; 0x16de <vfprintf+0x300>
    16d6:	8a 2d       	mov	r24, r10
    16d8:	86 78       	andi	r24, 0x86	; 134
    16da:	09 f0       	breq	.+2      	; 0x16de <vfprintf+0x300>
    16dc:	b3 94       	inc	r11
    16de:	a3 fc       	sbrc	r10, 3
    16e0:	11 c0       	rjmp	.+34     	; 0x1704 <vfprintf+0x326>
    16e2:	a0 fe       	sbrs	r10, 0
    16e4:	06 c0       	rjmp	.+12     	; 0x16f2 <vfprintf+0x314>
    16e6:	b2 14       	cp	r11, r2
    16e8:	88 f4       	brcc	.+34     	; 0x170c <vfprintf+0x32e>
    16ea:	28 0c       	add	r2, r8
    16ec:	92 2c       	mov	r9, r2
    16ee:	9b 18       	sub	r9, r11
    16f0:	0e c0       	rjmp	.+28     	; 0x170e <vfprintf+0x330>
    16f2:	b2 14       	cp	r11, r2
    16f4:	60 f4       	brcc	.+24     	; 0x170e <vfprintf+0x330>
    16f6:	b6 01       	movw	r22, r12
    16f8:	80 e2       	ldi	r24, 0x20	; 32
    16fa:	90 e0       	ldi	r25, 0x00	; 0
    16fc:	0e 94 e6 0b 	call	0x17cc	; 0x17cc <fputc>
    1700:	b3 94       	inc	r11
    1702:	f7 cf       	rjmp	.-18     	; 0x16f2 <vfprintf+0x314>
    1704:	b2 14       	cp	r11, r2
    1706:	18 f4       	brcc	.+6      	; 0x170e <vfprintf+0x330>
    1708:	2b 18       	sub	r2, r11
    170a:	02 c0       	rjmp	.+4      	; 0x1710 <vfprintf+0x332>
    170c:	98 2c       	mov	r9, r8
    170e:	21 2c       	mov	r2, r1
    1710:	a4 fe       	sbrs	r10, 4
    1712:	10 c0       	rjmp	.+32     	; 0x1734 <vfprintf+0x356>
    1714:	b6 01       	movw	r22, r12
    1716:	80 e3       	ldi	r24, 0x30	; 48
    1718:	90 e0       	ldi	r25, 0x00	; 0
    171a:	0e 94 e6 0b 	call	0x17cc	; 0x17cc <fputc>
    171e:	a2 fe       	sbrs	r10, 2
    1720:	17 c0       	rjmp	.+46     	; 0x1750 <vfprintf+0x372>
    1722:	a1 fc       	sbrc	r10, 1
    1724:	03 c0       	rjmp	.+6      	; 0x172c <vfprintf+0x34e>
    1726:	88 e7       	ldi	r24, 0x78	; 120
    1728:	90 e0       	ldi	r25, 0x00	; 0
    172a:	02 c0       	rjmp	.+4      	; 0x1730 <vfprintf+0x352>
    172c:	88 e5       	ldi	r24, 0x58	; 88
    172e:	90 e0       	ldi	r25, 0x00	; 0
    1730:	b6 01       	movw	r22, r12
    1732:	0c c0       	rjmp	.+24     	; 0x174c <vfprintf+0x36e>
    1734:	8a 2d       	mov	r24, r10
    1736:	86 78       	andi	r24, 0x86	; 134
    1738:	59 f0       	breq	.+22     	; 0x1750 <vfprintf+0x372>
    173a:	a1 fe       	sbrs	r10, 1
    173c:	02 c0       	rjmp	.+4      	; 0x1742 <vfprintf+0x364>
    173e:	8b e2       	ldi	r24, 0x2B	; 43
    1740:	01 c0       	rjmp	.+2      	; 0x1744 <vfprintf+0x366>
    1742:	80 e2       	ldi	r24, 0x20	; 32
    1744:	a7 fc       	sbrc	r10, 7
    1746:	8d e2       	ldi	r24, 0x2D	; 45
    1748:	b6 01       	movw	r22, r12
    174a:	90 e0       	ldi	r25, 0x00	; 0
    174c:	0e 94 e6 0b 	call	0x17cc	; 0x17cc <fputc>
    1750:	89 14       	cp	r8, r9
    1752:	38 f4       	brcc	.+14     	; 0x1762 <vfprintf+0x384>
    1754:	b6 01       	movw	r22, r12
    1756:	80 e3       	ldi	r24, 0x30	; 48
    1758:	90 e0       	ldi	r25, 0x00	; 0
    175a:	0e 94 e6 0b 	call	0x17cc	; 0x17cc <fputc>
    175e:	9a 94       	dec	r9
    1760:	f7 cf       	rjmp	.-18     	; 0x1750 <vfprintf+0x372>
    1762:	8a 94       	dec	r8
    1764:	f3 01       	movw	r30, r6
    1766:	e8 0d       	add	r30, r8
    1768:	f1 1d       	adc	r31, r1
    176a:	80 81       	ld	r24, Z
    176c:	b6 01       	movw	r22, r12
    176e:	90 e0       	ldi	r25, 0x00	; 0
    1770:	0e 94 e6 0b 	call	0x17cc	; 0x17cc <fputc>
    1774:	81 10       	cpse	r8, r1
    1776:	f5 cf       	rjmp	.-22     	; 0x1762 <vfprintf+0x384>
    1778:	22 20       	and	r2, r2
    177a:	09 f4       	brne	.+2      	; 0x177e <vfprintf+0x3a0>
    177c:	42 ce       	rjmp	.-892    	; 0x1402 <vfprintf+0x24>
    177e:	b6 01       	movw	r22, r12
    1780:	80 e2       	ldi	r24, 0x20	; 32
    1782:	90 e0       	ldi	r25, 0x00	; 0
    1784:	0e 94 e6 0b 	call	0x17cc	; 0x17cc <fputc>
    1788:	2a 94       	dec	r2
    178a:	f6 cf       	rjmp	.-20     	; 0x1778 <vfprintf+0x39a>
    178c:	f6 01       	movw	r30, r12
    178e:	86 81       	ldd	r24, Z+6	; 0x06
    1790:	97 81       	ldd	r25, Z+7	; 0x07
    1792:	02 c0       	rjmp	.+4      	; 0x1798 <vfprintf+0x3ba>
    1794:	8f ef       	ldi	r24, 0xFF	; 255
    1796:	9f ef       	ldi	r25, 0xFF	; 255
    1798:	2b 96       	adiw	r28, 0x0b	; 11
    179a:	e2 e1       	ldi	r30, 0x12	; 18
    179c:	0c 94 b2 0c 	jmp	0x1964	; 0x1964 <__epilogue_restores__>

000017a0 <strnlen_P>:
    17a0:	fc 01       	movw	r30, r24
    17a2:	05 90       	lpm	r0, Z+
    17a4:	61 50       	subi	r22, 0x01	; 1
    17a6:	70 40       	sbci	r23, 0x00	; 0
    17a8:	01 10       	cpse	r0, r1
    17aa:	d8 f7       	brcc	.-10     	; 0x17a2 <strnlen_P+0x2>
    17ac:	80 95       	com	r24
    17ae:	90 95       	com	r25
    17b0:	8e 0f       	add	r24, r30
    17b2:	9f 1f       	adc	r25, r31
    17b4:	08 95       	ret

000017b6 <strnlen>:
    17b6:	fc 01       	movw	r30, r24
    17b8:	61 50       	subi	r22, 0x01	; 1
    17ba:	70 40       	sbci	r23, 0x00	; 0
    17bc:	01 90       	ld	r0, Z+
    17be:	01 10       	cpse	r0, r1
    17c0:	d8 f7       	brcc	.-10     	; 0x17b8 <strnlen+0x2>
    17c2:	80 95       	com	r24
    17c4:	90 95       	com	r25
    17c6:	8e 0f       	add	r24, r30
    17c8:	9f 1f       	adc	r25, r31
    17ca:	08 95       	ret

000017cc <fputc>:
    17cc:	0f 93       	push	r16
    17ce:	1f 93       	push	r17
    17d0:	cf 93       	push	r28
    17d2:	df 93       	push	r29
    17d4:	fb 01       	movw	r30, r22
    17d6:	23 81       	ldd	r18, Z+3	; 0x03
    17d8:	21 fd       	sbrc	r18, 1
    17da:	03 c0       	rjmp	.+6      	; 0x17e2 <fputc+0x16>
    17dc:	8f ef       	ldi	r24, 0xFF	; 255
    17de:	9f ef       	ldi	r25, 0xFF	; 255
    17e0:	2c c0       	rjmp	.+88     	; 0x183a <fputc+0x6e>
    17e2:	22 ff       	sbrs	r18, 2
    17e4:	16 c0       	rjmp	.+44     	; 0x1812 <fputc+0x46>
    17e6:	46 81       	ldd	r20, Z+6	; 0x06
    17e8:	57 81       	ldd	r21, Z+7	; 0x07
    17ea:	24 81       	ldd	r18, Z+4	; 0x04
    17ec:	35 81       	ldd	r19, Z+5	; 0x05
    17ee:	42 17       	cp	r20, r18
    17f0:	53 07       	cpc	r21, r19
    17f2:	44 f4       	brge	.+16     	; 0x1804 <fputc+0x38>
    17f4:	a0 81       	ld	r26, Z
    17f6:	b1 81       	ldd	r27, Z+1	; 0x01
    17f8:	9d 01       	movw	r18, r26
    17fa:	2f 5f       	subi	r18, 0xFF	; 255
    17fc:	3f 4f       	sbci	r19, 0xFF	; 255
    17fe:	31 83       	std	Z+1, r19	; 0x01
    1800:	20 83       	st	Z, r18
    1802:	8c 93       	st	X, r24
    1804:	26 81       	ldd	r18, Z+6	; 0x06
    1806:	37 81       	ldd	r19, Z+7	; 0x07
    1808:	2f 5f       	subi	r18, 0xFF	; 255
    180a:	3f 4f       	sbci	r19, 0xFF	; 255
    180c:	37 83       	std	Z+7, r19	; 0x07
    180e:	26 83       	std	Z+6, r18	; 0x06
    1810:	14 c0       	rjmp	.+40     	; 0x183a <fputc+0x6e>
    1812:	8b 01       	movw	r16, r22
    1814:	ec 01       	movw	r28, r24
    1816:	fb 01       	movw	r30, r22
    1818:	00 84       	ldd	r0, Z+8	; 0x08
    181a:	f1 85       	ldd	r31, Z+9	; 0x09
    181c:	e0 2d       	mov	r30, r0
    181e:	09 95       	icall
    1820:	89 2b       	or	r24, r25
    1822:	e1 f6       	brne	.-72     	; 0x17dc <fputc+0x10>
    1824:	d8 01       	movw	r26, r16
    1826:	16 96       	adiw	r26, 0x06	; 6
    1828:	8d 91       	ld	r24, X+
    182a:	9c 91       	ld	r25, X
    182c:	17 97       	sbiw	r26, 0x07	; 7
    182e:	01 96       	adiw	r24, 0x01	; 1
    1830:	17 96       	adiw	r26, 0x07	; 7
    1832:	9c 93       	st	X, r25
    1834:	8e 93       	st	-X, r24
    1836:	16 97       	sbiw	r26, 0x06	; 6
    1838:	ce 01       	movw	r24, r28
    183a:	df 91       	pop	r29
    183c:	cf 91       	pop	r28
    183e:	1f 91       	pop	r17
    1840:	0f 91       	pop	r16
    1842:	08 95       	ret

00001844 <__ultoa_invert>:
    1844:	fa 01       	movw	r30, r20
    1846:	aa 27       	eor	r26, r26
    1848:	28 30       	cpi	r18, 0x08	; 8
    184a:	51 f1       	breq	.+84     	; 0x18a0 <__ultoa_invert+0x5c>
    184c:	20 31       	cpi	r18, 0x10	; 16
    184e:	81 f1       	breq	.+96     	; 0x18b0 <__ultoa_invert+0x6c>
    1850:	e8 94       	clt
    1852:	6f 93       	push	r22
    1854:	6e 7f       	andi	r22, 0xFE	; 254
    1856:	6e 5f       	subi	r22, 0xFE	; 254
    1858:	7f 4f       	sbci	r23, 0xFF	; 255
    185a:	8f 4f       	sbci	r24, 0xFF	; 255
    185c:	9f 4f       	sbci	r25, 0xFF	; 255
    185e:	af 4f       	sbci	r26, 0xFF	; 255
    1860:	b1 e0       	ldi	r27, 0x01	; 1
    1862:	3e d0       	rcall	.+124    	; 0x18e0 <__ultoa_invert+0x9c>
    1864:	b4 e0       	ldi	r27, 0x04	; 4
    1866:	3c d0       	rcall	.+120    	; 0x18e0 <__ultoa_invert+0x9c>
    1868:	67 0f       	add	r22, r23
    186a:	78 1f       	adc	r23, r24
    186c:	89 1f       	adc	r24, r25
    186e:	9a 1f       	adc	r25, r26
    1870:	a1 1d       	adc	r26, r1
    1872:	68 0f       	add	r22, r24
    1874:	79 1f       	adc	r23, r25
    1876:	8a 1f       	adc	r24, r26
    1878:	91 1d       	adc	r25, r1
    187a:	a1 1d       	adc	r26, r1
    187c:	6a 0f       	add	r22, r26
    187e:	71 1d       	adc	r23, r1
    1880:	81 1d       	adc	r24, r1
    1882:	91 1d       	adc	r25, r1
    1884:	a1 1d       	adc	r26, r1
    1886:	20 d0       	rcall	.+64     	; 0x18c8 <__ultoa_invert+0x84>
    1888:	09 f4       	brne	.+2      	; 0x188c <__ultoa_invert+0x48>
    188a:	68 94       	set
    188c:	3f 91       	pop	r19
    188e:	2a e0       	ldi	r18, 0x0A	; 10
    1890:	26 9f       	mul	r18, r22
    1892:	11 24       	eor	r1, r1
    1894:	30 19       	sub	r19, r0
    1896:	30 5d       	subi	r19, 0xD0	; 208
    1898:	31 93       	st	Z+, r19
    189a:	de f6       	brtc	.-74     	; 0x1852 <__ultoa_invert+0xe>
    189c:	cf 01       	movw	r24, r30
    189e:	08 95       	ret
    18a0:	46 2f       	mov	r20, r22
    18a2:	47 70       	andi	r20, 0x07	; 7
    18a4:	40 5d       	subi	r20, 0xD0	; 208
    18a6:	41 93       	st	Z+, r20
    18a8:	b3 e0       	ldi	r27, 0x03	; 3
    18aa:	0f d0       	rcall	.+30     	; 0x18ca <__ultoa_invert+0x86>
    18ac:	c9 f7       	brne	.-14     	; 0x18a0 <__ultoa_invert+0x5c>
    18ae:	f6 cf       	rjmp	.-20     	; 0x189c <__ultoa_invert+0x58>
    18b0:	46 2f       	mov	r20, r22
    18b2:	4f 70       	andi	r20, 0x0F	; 15
    18b4:	40 5d       	subi	r20, 0xD0	; 208
    18b6:	4a 33       	cpi	r20, 0x3A	; 58
    18b8:	18 f0       	brcs	.+6      	; 0x18c0 <__ultoa_invert+0x7c>
    18ba:	49 5d       	subi	r20, 0xD9	; 217
    18bc:	31 fd       	sbrc	r19, 1
    18be:	40 52       	subi	r20, 0x20	; 32
    18c0:	41 93       	st	Z+, r20
    18c2:	02 d0       	rcall	.+4      	; 0x18c8 <__ultoa_invert+0x84>
    18c4:	a9 f7       	brne	.-22     	; 0x18b0 <__ultoa_invert+0x6c>
    18c6:	ea cf       	rjmp	.-44     	; 0x189c <__ultoa_invert+0x58>
    18c8:	b4 e0       	ldi	r27, 0x04	; 4
    18ca:	a6 95       	lsr	r26
    18cc:	97 95       	ror	r25
    18ce:	87 95       	ror	r24
    18d0:	77 95       	ror	r23
    18d2:	67 95       	ror	r22
    18d4:	ba 95       	dec	r27
    18d6:	c9 f7       	brne	.-14     	; 0x18ca <__ultoa_invert+0x86>
    18d8:	00 97       	sbiw	r24, 0x00	; 0
    18da:	61 05       	cpc	r22, r1
    18dc:	71 05       	cpc	r23, r1
    18de:	08 95       	ret
    18e0:	9b 01       	movw	r18, r22
    18e2:	ac 01       	movw	r20, r24
    18e4:	0a 2e       	mov	r0, r26
    18e6:	06 94       	lsr	r0
    18e8:	57 95       	ror	r21
    18ea:	47 95       	ror	r20
    18ec:	37 95       	ror	r19
    18ee:	27 95       	ror	r18
    18f0:	ba 95       	dec	r27
    18f2:	c9 f7       	brne	.-14     	; 0x18e6 <__ultoa_invert+0xa2>
    18f4:	62 0f       	add	r22, r18
    18f6:	73 1f       	adc	r23, r19
    18f8:	84 1f       	adc	r24, r20
    18fa:	95 1f       	adc	r25, r21
    18fc:	a0 1d       	adc	r26, r0
    18fe:	08 95       	ret

00001900 <eeprom_read_byte>:
    1900:	f9 99       	sbic	0x1f, 1	; 31
    1902:	fe cf       	rjmp	.-4      	; 0x1900 <eeprom_read_byte>
    1904:	92 bd       	out	0x22, r25	; 34
    1906:	81 bd       	out	0x21, r24	; 33
    1908:	f8 9a       	sbi	0x1f, 0	; 31
    190a:	99 27       	eor	r25, r25
    190c:	80 b5       	in	r24, 0x20	; 32
    190e:	08 95       	ret

00001910 <eeprom_write_byte>:
    1910:	26 2f       	mov	r18, r22

00001912 <eeprom_write_r18>:
    1912:	f9 99       	sbic	0x1f, 1	; 31
    1914:	fe cf       	rjmp	.-4      	; 0x1912 <eeprom_write_r18>
    1916:	1f ba       	out	0x1f, r1	; 31
    1918:	92 bd       	out	0x22, r25	; 34
    191a:	81 bd       	out	0x21, r24	; 33
    191c:	20 bd       	out	0x20, r18	; 32
    191e:	0f b6       	in	r0, 0x3f	; 63
    1920:	f8 94       	cli
    1922:	fa 9a       	sbi	0x1f, 2	; 31
    1924:	f9 9a       	sbi	0x1f, 1	; 31
    1926:	0f be       	out	0x3f, r0	; 63
    1928:	01 96       	adiw	r24, 0x01	; 1
    192a:	08 95       	ret

0000192c <__prologue_saves__>:
    192c:	2f 92       	push	r2
    192e:	3f 92       	push	r3
    1930:	4f 92       	push	r4
    1932:	5f 92       	push	r5
    1934:	6f 92       	push	r6
    1936:	7f 92       	push	r7
    1938:	8f 92       	push	r8
    193a:	9f 92       	push	r9
    193c:	af 92       	push	r10
    193e:	bf 92       	push	r11
    1940:	cf 92       	push	r12
    1942:	df 92       	push	r13
    1944:	ef 92       	push	r14
    1946:	ff 92       	push	r15
    1948:	0f 93       	push	r16
    194a:	1f 93       	push	r17
    194c:	cf 93       	push	r28
    194e:	df 93       	push	r29
    1950:	cd b7       	in	r28, 0x3d	; 61
    1952:	de b7       	in	r29, 0x3e	; 62
    1954:	ca 1b       	sub	r28, r26
    1956:	db 0b       	sbc	r29, r27
    1958:	0f b6       	in	r0, 0x3f	; 63
    195a:	f8 94       	cli
    195c:	de bf       	out	0x3e, r29	; 62
    195e:	0f be       	out	0x3f, r0	; 63
    1960:	cd bf       	out	0x3d, r28	; 61
    1962:	09 94       	ijmp

00001964 <__epilogue_restores__>:
    1964:	2a 88       	ldd	r2, Y+18	; 0x12
    1966:	39 88       	ldd	r3, Y+17	; 0x11
    1968:	48 88       	ldd	r4, Y+16	; 0x10
    196a:	5f 84       	ldd	r5, Y+15	; 0x0f
    196c:	6e 84       	ldd	r6, Y+14	; 0x0e
    196e:	7d 84       	ldd	r7, Y+13	; 0x0d
    1970:	8c 84       	ldd	r8, Y+12	; 0x0c
    1972:	9b 84       	ldd	r9, Y+11	; 0x0b
    1974:	aa 84       	ldd	r10, Y+10	; 0x0a
    1976:	b9 84       	ldd	r11, Y+9	; 0x09
    1978:	c8 84       	ldd	r12, Y+8	; 0x08
    197a:	df 80       	ldd	r13, Y+7	; 0x07
    197c:	ee 80       	ldd	r14, Y+6	; 0x06
    197e:	fd 80       	ldd	r15, Y+5	; 0x05
    1980:	0c 81       	ldd	r16, Y+4	; 0x04
    1982:	1b 81       	ldd	r17, Y+3	; 0x03
    1984:	aa 81       	ldd	r26, Y+2	; 0x02
    1986:	b9 81       	ldd	r27, Y+1	; 0x01
    1988:	ce 0f       	add	r28, r30
    198a:	d1 1d       	adc	r29, r1
    198c:	0f b6       	in	r0, 0x3f	; 63
    198e:	f8 94       	cli
    1990:	de bf       	out	0x3e, r29	; 62
    1992:	0f be       	out	0x3f, r0	; 63
    1994:	cd bf       	out	0x3d, r28	; 61
    1996:	ed 01       	movw	r28, r26
    1998:	08 95       	ret

0000199a <_exit>:
    199a:	f8 94       	cli

0000199c <__stop_program>:
    199c:	ff cf       	rjmp	.-2      	; 0x199c <__stop_program>
